ARM GAS  C:\Users\ibrah\AppData\Local\Temp\ccmUVnXM.s 			page 1


   1              		.syntax unified
   2              		.cpu cortex-m3
   3              		.fpu softvfp
   4              		.eabi_attribute 20, 1
   5              		.eabi_attribute 21, 1
   6              		.eabi_attribute 23, 3
   7              		.eabi_attribute 24, 1
   8              		.eabi_attribute 25, 1
   9              		.eabi_attribute 26, 1
  10              		.eabi_attribute 30, 1
  11              		.eabi_attribute 34, 1
  12              		.eabi_attribute 18, 4
  13              		.thumb
  14              		.syntax unified
  15              		.file	"motor_control.c"
  16              		.text
  17              	.Ltext0:
  18              		.cfi_sections	.debug_frame
  19              		.section	.text.MoveServosToStart,"ax",%progbits
  20              		.align	2
  21              		.global	MoveServosToStart
  22              		.thumb
  23              		.thumb_func
  24              		.type	MoveServosToStart, %function
  25              	MoveServosToStart:
  26              	.LFB63:
  27              		.file 1 "motor_control.c"
   1:motor_control.c **** #include <project.h>
   2:motor_control.c **** 
   3:motor_control.c **** #include "motor_control.h"
   4:motor_control.c **** 
   5:motor_control.c **** 
   6:motor_control.c **** 
   7:motor_control.c **** int potentio_cmd = 0;
   8:motor_control.c **** int servo_cmd_1 = 0;
   9:motor_control.c **** int servo_cmd_2 = 0;
  10:motor_control.c **** 
  11:motor_control.c **** 
  12:motor_control.c **** 
  13:motor_control.c **** 
  14:motor_control.c **** void MoveServosToStart()
  15:motor_control.c **** {
  28              		.loc 1 15 0
  29              		.cfi_startproc
  30              		@ args = 0, pretend = 0, frame = 0
  31              		@ frame_needed = 0, uses_anonymous_args = 0
  32 0000 08B5     		push	{r3, lr}
  33              		.cfi_def_cfa_offset 8
  34              		.cfi_offset 3, -8
  35              		.cfi_offset 14, -4
  16:motor_control.c ****     PWM_WriteCompare1(3800);
  36              		.loc 1 16 0
  37 0002 40F6D860 		movw	r0, #3800
  38 0006 FFF7FEFF 		bl	PWM_WriteCompare1
  39              	.LVL0:
  17:motor_control.c ****     PWM_WriteCompare2(2025);
  40              		.loc 1 17 0
ARM GAS  C:\Users\ibrah\AppData\Local\Temp\ccmUVnXM.s 			page 2


  41 000a 40F2E970 		movw	r0, #2025
  42 000e FFF7FEFF 		bl	PWM_WriteCompare2
  43              	.LVL1:
  44 0012 08BD     		pop	{r3, pc}
  45              		.cfi_endproc
  46              	.LFE63:
  47              		.size	MoveServosToStart, .-MoveServosToStart
  48              		.section	.text.InitializeServos,"ax",%progbits
  49              		.align	2
  50              		.global	InitializeServos
  51              		.thumb
  52              		.thumb_func
  53              		.type	InitializeServos, %function
  54              	InitializeServos:
  55              	.LFB64:
  18:motor_control.c ****     
  19:motor_control.c **** }
  20:motor_control.c **** 
  21:motor_control.c **** 
  22:motor_control.c **** void InitializeServos()
  23:motor_control.c **** {
  56              		.loc 1 23 0
  57              		.cfi_startproc
  58              		@ args = 0, pretend = 0, frame = 0
  59              		@ frame_needed = 0, uses_anonymous_args = 0
  60 0000 08B5     		push	{r3, lr}
  61              		.cfi_def_cfa_offset 8
  62              		.cfi_offset 3, -8
  63              		.cfi_offset 14, -4
  24:motor_control.c ****     
  25:motor_control.c ****     PWM_Start();
  64              		.loc 1 25 0
  65 0002 FFF7FEFF 		bl	PWM_Start
  66              	.LVL2:
  26:motor_control.c ****     MoveServosToStart();
  67              		.loc 1 26 0
  68 0006 FFF7FEFF 		bl	MoveServosToStart
  69              	.LVL3:
  70 000a 08BD     		pop	{r3, pc}
  71              		.cfi_endproc
  72              	.LFE64:
  73              		.size	InitializeServos, .-InitializeServos
  74              		.section	.text.Joystick_Start,"ax",%progbits
  75              		.align	2
  76              		.global	Joystick_Start
  77              		.thumb
  78              		.thumb_func
  79              		.type	Joystick_Start, %function
  80              	Joystick_Start:
  81              	.LFB65:
  27:motor_control.c **** 
  28:motor_control.c ****     
  29:motor_control.c **** }
  30:motor_control.c **** 
  31:motor_control.c **** 
  32:motor_control.c **** 
  33:motor_control.c **** 
ARM GAS  C:\Users\ibrah\AppData\Local\Temp\ccmUVnXM.s 			page 3


  34:motor_control.c **** void Joystick_Start()
  35:motor_control.c **** {
  82              		.loc 1 35 0
  83              		.cfi_startproc
  84              		@ args = 0, pretend = 0, frame = 0
  85              		@ frame_needed = 0, uses_anonymous_args = 0
  86 0000 08B5     		push	{r3, lr}
  87              		.cfi_def_cfa_offset 8
  88              		.cfi_offset 3, -8
  89              		.cfi_offset 14, -4
  36:motor_control.c ****     
  37:motor_control.c ****     ADC_Start();
  90              		.loc 1 37 0
  91 0002 FFF7FEFF 		bl	ADC_Start
  92              	.LVL4:
  38:motor_control.c ****     ADC_StartConvert();
  93              		.loc 1 38 0
  94 0006 FFF7FEFF 		bl	ADC_StartConvert
  95              	.LVL5:
  39:motor_control.c ****     AMux_Start();
  96              		.loc 1 39 0
  97 000a FFF7FEFF 		bl	AMux_Start
  98              	.LVL6:
  99 000e 08BD     		pop	{r3, pc}
 100              		.cfi_endproc
 101              	.LFE65:
 102              		.size	Joystick_Start, .-Joystick_Start
 103              		.global	__aeabi_f2d
 104              		.global	__aeabi_ddiv
 105              		.global	__aeabi_dsub
 106              		.global	__aeabi_d2iz
 107              		.section	.text.MPU6050_MoveServo1,"ax",%progbits
 108              		.align	2
 109              		.global	MPU6050_MoveServo1
 110              		.thumb
 111              		.thumb_func
 112              		.type	MPU6050_MoveServo1, %function
 113              	MPU6050_MoveServo1:
 114              	.LFB66:
  40:motor_control.c ****     
  41:motor_control.c **** }
  42:motor_control.c ****     
  43:motor_control.c **** 
  44:motor_control.c **** void MPU6050_MoveServo1(float* roll)
  45:motor_control.c **** {
 115              		.loc 1 45 0
 116              		.cfi_startproc
 117              		@ args = 0, pretend = 0, frame = 0
 118              		@ frame_needed = 0, uses_anonymous_args = 0
 119              	.LVL7:
 120 0000 08B5     		push	{r3, lr}
 121              		.cfi_def_cfa_offset 8
 122              		.cfi_offset 3, -8
 123              		.cfi_offset 14, -4
  46:motor_control.c ****         servo_cmd_1 = 3800 - *roll / 0.0375;
 124              		.loc 1 46 0
 125 0002 0068     		ldr	r0, [r0]	@ float
ARM GAS  C:\Users\ibrah\AppData\Local\Temp\ccmUVnXM.s 			page 4


 126              	.LVL8:
 127 0004 FFF7FEFF 		bl	__aeabi_f2d
 128              	.LVL9:
 129 0008 11A3     		adr	r3, .L11
 130 000a D3E90023 		ldrd	r2, [r3]
 131 000e FFF7FEFF 		bl	__aeabi_ddiv
 132              	.LVL10:
 133 0012 0246     		mov	r2, r0
 134 0014 0B46     		mov	r3, r1
 135 0016 10A1     		adr	r1, .L11+8
 136 0018 D1E90001 		ldrd	r0, [r1]
 137 001c FFF7FEFF 		bl	__aeabi_dsub
 138              	.LVL11:
 139 0020 FFF7FEFF 		bl	__aeabi_d2iz
 140              	.LVL12:
 141 0024 0E4B     		ldr	r3, .L11+16
 142 0026 1860     		str	r0, [r3]
  47:motor_control.c ****             
  48:motor_control.c ****         if (servo_cmd_1 > 6000)
 143              		.loc 1 48 0
 144 0028 41F27073 		movw	r3, #6000
 145 002c 9842     		cmp	r0, r3
 146 002e 03DD     		ble	.L8
  49:motor_control.c ****         {
  50:motor_control.c ****          servo_cmd_1 = 6000;   
 147              		.loc 1 50 0
 148 0030 1A46     		mov	r2, r3
 149 0032 0B4B     		ldr	r3, .L11+16
 150 0034 1A60     		str	r2, [r3]
 151 0036 06E0     		b	.L9
 152              	.L8:
  51:motor_control.c ****         }
  52:motor_control.c ****         else if (servo_cmd_1 < 1200)
 153              		.loc 1 52 0
 154 0038 B0F5966F 		cmp	r0, #1200
 155 003c 03DA     		bge	.L9
  53:motor_control.c ****         {
  54:motor_control.c ****             servo_cmd_1 = 1200;
 156              		.loc 1 54 0
 157 003e 4FF49662 		mov	r2, #1200
 158 0042 074B     		ldr	r3, .L11+16
 159 0044 1A60     		str	r2, [r3]
 160              	.L9:
  55:motor_control.c ****         }
  56:motor_control.c ****         PWM_WriteCompare1(servo_cmd_1);
 161              		.loc 1 56 0
 162 0046 064B     		ldr	r3, .L11+16
 163 0048 1888     		ldrh	r0, [r3]
 164 004a FFF7FEFF 		bl	PWM_WriteCompare1
 165              	.LVL13:
 166 004e 08BD     		pop	{r3, pc}
 167              	.L12:
 168              		.align	3
 169              	.L11:
 170 0050 33333333 		.word	858993459
 171 0054 3333A33F 		.word	1067660083
 172 0058 00000000 		.word	0
ARM GAS  C:\Users\ibrah\AppData\Local\Temp\ccmUVnXM.s 			page 5


 173 005c 00B0AD40 		.word	1085124608
 174 0060 00000000 		.word	.LANCHOR0
 175              		.cfi_endproc
 176              	.LFE66:
 177              		.size	MPU6050_MoveServo1, .-MPU6050_MoveServo1
 178              		.section	.text.MPU6050_MoveServo2,"ax",%progbits
 179              		.align	2
 180              		.global	MPU6050_MoveServo2
 181              		.thumb
 182              		.thumb_func
 183              		.type	MPU6050_MoveServo2, %function
 184              	MPU6050_MoveServo2:
 185              	.LFB67:
  57:motor_control.c ****         
  58:motor_control.c ****         
  59:motor_control.c ****         /*sprintf(detect, "1 -- POT:: %d -- SERVO1 %d\n", cmd, servo_cmd_1);
  60:motor_control.c ****         UART_PutString(detect);*/ 
  61:motor_control.c **** }
  62:motor_control.c **** 
  63:motor_control.c **** 
  64:motor_control.c **** 
  65:motor_control.c **** 
  66:motor_control.c **** void MPU6050_MoveServo2(float* pitch)
  67:motor_control.c **** {
 186              		.loc 1 67 0
 187              		.cfi_startproc
 188              		@ args = 0, pretend = 0, frame = 0
 189              		@ frame_needed = 0, uses_anonymous_args = 0
 190              	.LVL14:
 191 0000 08B5     		push	{r3, lr}
 192              		.cfi_def_cfa_offset 8
 193              		.cfi_offset 3, -8
 194              		.cfi_offset 14, -4
  68:motor_control.c **** 
  69:motor_control.c ****         servo_cmd_2 = 2025 - *pitch / 0.0375;
 195              		.loc 1 69 0
 196 0002 0068     		ldr	r0, [r0]	@ float
 197              	.LVL15:
 198 0004 FFF7FEFF 		bl	__aeabi_f2d
 199              	.LVL16:
 200 0008 11A3     		adr	r3, .L17
 201 000a D3E90023 		ldrd	r2, [r3]
 202 000e FFF7FEFF 		bl	__aeabi_ddiv
 203              	.LVL17:
 204 0012 0246     		mov	r2, r0
 205 0014 0B46     		mov	r3, r1
 206 0016 10A1     		adr	r1, .L17+8
 207 0018 D1E90001 		ldrd	r0, [r1]
 208 001c FFF7FEFF 		bl	__aeabi_dsub
 209              	.LVL18:
 210 0020 FFF7FEFF 		bl	__aeabi_d2iz
 211              	.LVL19:
 212 0024 0E4B     		ldr	r3, .L17+16
 213 0026 5860     		str	r0, [r3, #4]
  70:motor_control.c ****         
  71:motor_control.c ****         if (servo_cmd_2 > 2850)
 214              		.loc 1 71 0
ARM GAS  C:\Users\ibrah\AppData\Local\Temp\ccmUVnXM.s 			page 6


 215 0028 40F62233 		movw	r3, #2850
 216 002c 9842     		cmp	r0, r3
 217 002e 03DD     		ble	.L14
  72:motor_control.c ****         {
  73:motor_control.c ****          servo_cmd_2 = 2850;   
 218              		.loc 1 73 0
 219 0030 1A46     		mov	r2, r3
 220 0032 0B4B     		ldr	r3, .L17+16
 221 0034 5A60     		str	r2, [r3, #4]
 222 0036 06E0     		b	.L15
 223              	.L14:
  74:motor_control.c ****         }
  75:motor_control.c ****         else if (servo_cmd_2 < 1200)
 224              		.loc 1 75 0
 225 0038 B0F5966F 		cmp	r0, #1200
 226 003c 03DA     		bge	.L15
  76:motor_control.c ****         {
  77:motor_control.c ****             servo_cmd_2 = 1200;
 227              		.loc 1 77 0
 228 003e 4FF49662 		mov	r2, #1200
 229 0042 074B     		ldr	r3, .L17+16
 230 0044 5A60     		str	r2, [r3, #4]
 231              	.L15:
  78:motor_control.c ****         }
  79:motor_control.c ****         
  80:motor_control.c ****         PWM_WriteCompare2(servo_cmd_2);
 232              		.loc 1 80 0
 233 0046 064B     		ldr	r3, .L17+16
 234 0048 9888     		ldrh	r0, [r3, #4]
 235 004a FFF7FEFF 		bl	PWM_WriteCompare2
 236              	.LVL20:
 237 004e 08BD     		pop	{r3, pc}
 238              	.L18:
 239              		.align	3
 240              	.L17:
 241 0050 33333333 		.word	858993459
 242 0054 3333A33F 		.word	1067660083
 243 0058 00000000 		.word	0
 244 005c 00A49F40 		.word	1084204032
 245 0060 00000000 		.word	.LANCHOR0
 246              		.cfi_endproc
 247              	.LFE67:
 248              		.size	MPU6050_MoveServo2, .-MPU6050_MoveServo2
 249              		.global	__aeabi_i2d
 250              		.global	__aeabi_dmul
 251              		.global	__aeabi_dadd
 252              		.section	.text.Joystick_MoveServo1,"ax",%progbits
 253              		.align	2
 254              		.global	Joystick_MoveServo1
 255              		.thumb
 256              		.thumb_func
 257              		.type	Joystick_MoveServo1, %function
 258              	Joystick_MoveServo1:
 259              	.LFB68:
  81:motor_control.c ****     
  82:motor_control.c ****         /*sprintf(detect, "2 -- POT:: %d -- SERVO2 %d\n", potentio_cmd, servo_cmd_2);
  83:motor_control.c ****         UART_PutString(detect);*/
ARM GAS  C:\Users\ibrah\AppData\Local\Temp\ccmUVnXM.s 			page 7


  84:motor_control.c **** 
  85:motor_control.c **** }
  86:motor_control.c **** 
  87:motor_control.c **** 
  88:motor_control.c **** 
  89:motor_control.c **** 
  90:motor_control.c **** void Joystick_MoveServo1()
  91:motor_control.c **** {
 260              		.loc 1 91 0
 261              		.cfi_startproc
 262              		@ args = 0, pretend = 0, frame = 0
 263              		@ frame_needed = 0, uses_anonymous_args = 0
 264 0000 10B5     		push	{r4, lr}
 265              		.cfi_def_cfa_offset 8
 266              		.cfi_offset 4, -8
 267              		.cfi_offset 14, -4
  92:motor_control.c ****         
  93:motor_control.c ****         AMux_Select(0);
 268              		.loc 1 93 0
 269 0002 0020     		movs	r0, #0
 270 0004 FFF7FEFF 		bl	AMux_Select
 271              	.LVL21:
  94:motor_control.c ****         potentio_cmd = ADC_Read16(); // de base à 551 (0 to 1035)
 272              		.loc 1 94 0
 273 0008 FFF7FEFF 		bl	ADC_Read16
 274              	.LVL22:
 275 000c 164C     		ldr	r4, .L23+16
 276 000e A060     		str	r0, [r4, #8]
  95:motor_control.c ****     
  96:motor_control.c ****         servo_cmd_1 = 3800 + (potentio_cmd - 531)*(SERVO1_POT2PWM);
 277              		.loc 1 96 0
 278 0010 A0F21320 		subw	r0, r0, #531
 279 0014 FFF7FEFF 		bl	__aeabi_i2d
 280              	.LVL23:
 281 0018 0FA3     		adr	r3, .L23
 282 001a D3E90023 		ldrd	r2, [r3]
 283 001e FFF7FEFF 		bl	__aeabi_dmul
 284              	.LVL24:
 285 0022 0FA3     		adr	r3, .L23+8
 286 0024 D3E90023 		ldrd	r2, [r3]
 287 0028 FFF7FEFF 		bl	__aeabi_dadd
 288              	.LVL25:
 289 002c FFF7FEFF 		bl	__aeabi_d2iz
 290              	.LVL26:
 291 0030 2060     		str	r0, [r4]
  97:motor_control.c ****             
  98:motor_control.c ****         if (servo_cmd_1 > 6000)
 292              		.loc 1 98 0
 293 0032 41F27073 		movw	r3, #6000
 294 0036 9842     		cmp	r0, r3
 295 0038 02DD     		ble	.L20
  99:motor_control.c ****         {
 100:motor_control.c ****          servo_cmd_1 = 6000;   
 296              		.loc 1 100 0
 297 003a 1A46     		mov	r2, r3
 298 003c 2260     		str	r2, [r4]
 299 003e 06E0     		b	.L21
ARM GAS  C:\Users\ibrah\AppData\Local\Temp\ccmUVnXM.s 			page 8


 300              	.L20:
 101:motor_control.c ****         }
 102:motor_control.c ****         else if (servo_cmd_1 < 1200)
 301              		.loc 1 102 0
 302 0040 B0F5966F 		cmp	r0, #1200
 303 0044 03DA     		bge	.L21
 103:motor_control.c ****         {
 104:motor_control.c ****             servo_cmd_1 = 1200;
 304              		.loc 1 104 0
 305 0046 4FF49662 		mov	r2, #1200
 306 004a 074B     		ldr	r3, .L23+16
 307 004c 1A60     		str	r2, [r3]
 308              	.L21:
 105:motor_control.c ****         }
 106:motor_control.c ****         
 107:motor_control.c ****         PWM_WriteCompare1(servo_cmd_1); 
 309              		.loc 1 107 0
 310 004e 064B     		ldr	r3, .L23+16
 311 0050 1888     		ldrh	r0, [r3]
 312 0052 FFF7FEFF 		bl	PWM_WriteCompare1
 313              	.LVL27:
 314 0056 10BD     		pop	{r4, pc}
 315              	.L24:
 316              		.align	3
 317              	.L23:
 318 0058 05A3923A 		.word	982688517
 319 005c 018D1240 		.word	1074957569
 320 0060 00000000 		.word	0
 321 0064 00B0AD40 		.word	1085124608
 322 0068 00000000 		.word	.LANCHOR0
 323              		.cfi_endproc
 324              	.LFE68:
 325              		.size	Joystick_MoveServo1, .-Joystick_MoveServo1
 326              		.section	.text.Joystick_MoveServo2,"ax",%progbits
 327              		.align	2
 328              		.global	Joystick_MoveServo2
 329              		.thumb
 330              		.thumb_func
 331              		.type	Joystick_MoveServo2, %function
 332              	Joystick_MoveServo2:
 333              	.LFB69:
 108:motor_control.c ****         
 109:motor_control.c ****         /*sprintf(detect, "1 -- POT:: %d -- SERVO1 %d\n", cmd, servo_cmd_1);
 110:motor_control.c ****         UART_PutString(detect);
 111:motor_control.c ****         
 112:motor_control.c ****          */ 
 113:motor_control.c ****     
 114:motor_control.c **** }
 115:motor_control.c **** 
 116:motor_control.c **** 
 117:motor_control.c **** void Joystick_MoveServo2()
 118:motor_control.c **** {
 334              		.loc 1 118 0
 335              		.cfi_startproc
 336              		@ args = 0, pretend = 0, frame = 0
 337              		@ frame_needed = 0, uses_anonymous_args = 0
 338 0000 10B5     		push	{r4, lr}
ARM GAS  C:\Users\ibrah\AppData\Local\Temp\ccmUVnXM.s 			page 9


 339              		.cfi_def_cfa_offset 8
 340              		.cfi_offset 4, -8
 341              		.cfi_offset 14, -4
 119:motor_control.c ****         AMux_Select(1);
 342              		.loc 1 119 0
 343 0002 0120     		movs	r0, #1
 344 0004 FFF7FEFF 		bl	AMux_Select
 345              	.LVL28:
 120:motor_control.c ****         potentio_cmd = ADC_Read16(); // de base à 551 (0 to 1035)
 346              		.loc 1 120 0
 347 0008 FFF7FEFF 		bl	ADC_Read16
 348              	.LVL29:
 349 000c 164C     		ldr	r4, .L29+16
 350 000e A060     		str	r0, [r4, #8]
 121:motor_control.c ****         servo_cmd_2 = 2025 + (potentio_cmd - 551)*(SERVO2_POT2PWM);
 351              		.loc 1 121 0
 352 0010 A0F22720 		subw	r0, r0, #551
 353 0014 FFF7FEFF 		bl	__aeabi_i2d
 354              	.LVL30:
 355 0018 0FA3     		adr	r3, .L29
 356 001a D3E90023 		ldrd	r2, [r3]
 357 001e FFF7FEFF 		bl	__aeabi_dmul
 358              	.LVL31:
 359 0022 0FA3     		adr	r3, .L29+8
 360 0024 D3E90023 		ldrd	r2, [r3]
 361 0028 FFF7FEFF 		bl	__aeabi_dadd
 362              	.LVL32:
 363 002c FFF7FEFF 		bl	__aeabi_d2iz
 364              	.LVL33:
 365 0030 6060     		str	r0, [r4, #4]
 122:motor_control.c ****         
 123:motor_control.c ****         if (servo_cmd_2 > 2850)
 366              		.loc 1 123 0
 367 0032 40F62233 		movw	r3, #2850
 368 0036 9842     		cmp	r0, r3
 369 0038 02DD     		ble	.L26
 124:motor_control.c ****         {
 125:motor_control.c ****          servo_cmd_2 = 2850;   
 370              		.loc 1 125 0
 371 003a 1A46     		mov	r2, r3
 372 003c 6260     		str	r2, [r4, #4]
 373 003e 06E0     		b	.L27
 374              	.L26:
 126:motor_control.c ****         }
 127:motor_control.c ****         else if (servo_cmd_2 < 1200)
 375              		.loc 1 127 0
 376 0040 B0F5966F 		cmp	r0, #1200
 377 0044 03DA     		bge	.L27
 128:motor_control.c ****         {
 129:motor_control.c ****             servo_cmd_2 = 1200;
 378              		.loc 1 129 0
 379 0046 4FF49662 		mov	r2, #1200
 380 004a 074B     		ldr	r3, .L29+16
 381 004c 5A60     		str	r2, [r3, #4]
 382              	.L27:
 130:motor_control.c ****         }
 131:motor_control.c ****         
ARM GAS  C:\Users\ibrah\AppData\Local\Temp\ccmUVnXM.s 			page 10


 132:motor_control.c ****         PWM_WriteCompare2(servo_cmd_2);
 383              		.loc 1 132 0
 384 004e 064B     		ldr	r3, .L29+16
 385 0050 9888     		ldrh	r0, [r3, #4]
 386 0052 FFF7FEFF 		bl	PWM_WriteCompare2
 387              	.LVL34:
 388 0056 10BD     		pop	{r4, pc}
 389              	.L30:
 390              		.align	3
 391              	.L29:
 392 0058 FD87F4DB 		.word	-604731395
 393 005c D781F93F 		.word	1073316311
 394 0060 00000000 		.word	0
 395 0064 00A49F40 		.word	1084204032
 396 0068 00000000 		.word	.LANCHOR0
 397              		.cfi_endproc
 398              	.LFE69:
 399              		.size	Joystick_MoveServo2, .-Joystick_MoveServo2
 400              		.global	servo_cmd_2
 401              		.global	servo_cmd_1
 402              		.global	potentio_cmd
 403              		.bss
 404              		.align	2
 405              		.set	.LANCHOR0,. + 0
 406              		.type	servo_cmd_1, %object
 407              		.size	servo_cmd_1, 4
 408              	servo_cmd_1:
 409 0000 00000000 		.space	4
 410              		.type	servo_cmd_2, %object
 411              		.size	servo_cmd_2, 4
 412              	servo_cmd_2:
 413 0004 00000000 		.space	4
 414              		.type	potentio_cmd, %object
 415              		.size	potentio_cmd, 4
 416              	potentio_cmd:
 417 0008 00000000 		.space	4
 418              		.text
 419              	.Letext0:
 420              		.file 2 "c:\\program files (x86)\\cypress\\psoc creator\\4.4\\psoc creator\\import\\gnu\\arm\\5.4.
 421              		.file 3 "c:\\program files (x86)\\cypress\\psoc creator\\4.4\\psoc creator\\import\\gnu\\arm\\5.4.
 422              		.file 4 "Generated_Source\\PSoC5/core_cm3.h"
 423              		.file 5 "Generated_Source\\PSoC5/PWM.h"
 424              		.file 6 "Generated_Source\\PSoC5/ADC.h"
 425              		.file 7 "Generated_Source\\PSoC5/AMux.h"