ARM GAS  C:\Users\ibrah\AppData\Local\Temp\ccq2XVhz.s 			page 1


   1              		.syntax unified
   2              		.cpu cortex-m3
   3              		.fpu softvfp
   4              		.eabi_attribute 20, 1
   5              		.eabi_attribute 21, 1
   6              		.eabi_attribute 23, 3
   7              		.eabi_attribute 24, 1
   8              		.eabi_attribute 25, 1
   9              		.eabi_attribute 26, 1
  10              		.eabi_attribute 30, 1
  11              		.eabi_attribute 34, 1
  12              		.eabi_attribute 18, 4
  13              		.thumb
  14              		.syntax unified
  15              		.file	"mpu6050.c"
  16              		.text
  17              	.Ltext0:
  18              		.cfi_sections	.debug_frame
  19              		.global	__aeabi_ui2f
  20              		.global	__aeabi_fdiv
  21              		.section	.text.GetElapsedTimeS,"ax",%progbits
  22              		.align	2
  23              		.thumb
  24              		.thumb_func
  25              		.type	GetElapsedTimeS, %function
  26              	GetElapsedTimeS:
  27              	.LFB67:
  28              		.file 1 "mpu6050.c"
   1:mpu6050.c     **** #include <stdio.h>
   2:mpu6050.c     **** #include <stdlib.h>
   3:mpu6050.c     **** #include <string.h>
   4:mpu6050.c     **** #include <math.h>
   5:mpu6050.c     **** 
   6:mpu6050.c     **** 
   7:mpu6050.c     **** #include <project.h>
   8:mpu6050.c     **** #include "mpu6050.h"
   9:mpu6050.c     **** 
  10:mpu6050.c     **** 
  11:mpu6050.c     **** static uint8_t i2c_buffer[22];
  12:mpu6050.c     **** 
  13:mpu6050.c     **** struct Calibration
  14:mpu6050.c     **** {
  15:mpu6050.c     ****     int32_t ax_offset;
  16:mpu6050.c     ****     int32_t ay_offset;
  17:mpu6050.c     ****     int32_t az_offset;
  18:mpu6050.c     ****     int32_t gx_offset;
  19:mpu6050.c     ****     int32_t gy_offset;
  20:mpu6050.c     ****     int32_t gz_offset;
  21:mpu6050.c     ****     //int16_t t_offset;
  22:mpu6050.c     **** };
  23:mpu6050.c     **** 
  24:mpu6050.c     **** static struct Calibration calib;
  25:mpu6050.c     **** 
  26:mpu6050.c     **** static struct Data data;
  27:mpu6050.c     **** 
  28:mpu6050.c     **** 
  29:mpu6050.c     **** 
ARM GAS  C:\Users\ibrah\AppData\Local\Temp\ccq2XVhz.s 			page 2


  30:mpu6050.c     **** static uint8_t MPU6050_flag;
  31:mpu6050.c     **** 
  32:mpu6050.c     **** 
  33:mpu6050.c     **** static unsigned int counter;
  34:mpu6050.c     **** static int counter_started = 0;
  35:mpu6050.c     **** static float elapsed_time = 0;
  36:mpu6050.c     **** 
  37:mpu6050.c     **** 
  38:mpu6050.c     **** uint8_t MPU6050_is_calibrated = FALSE;
  39:mpu6050.c     **** 
  40:mpu6050.c     **** 
  41:mpu6050.c     **** 
  42:mpu6050.c     **** 
  43:mpu6050.c     **** // Gyro max sample rate --> 8 kHz
  44:mpu6050.c     **** // Accelerometer max sample rate --> 1 kHz
  45:mpu6050.c     **** 
  46:mpu6050.c     **** CY_ISR(ISR_1_Handler) // MPU6050_SAMPLE_PERIOD_S
  47:mpu6050.c     **** {
  48:mpu6050.c     ****     
  49:mpu6050.c     ****     if (counter_started == 1)
  50:mpu6050.c     ****     {
  51:mpu6050.c     ****         counter++;
  52:mpu6050.c     ****     }
  53:mpu6050.c     ****     
  54:mpu6050.c     ****     MPU6050_flag = TRUE;
  55:mpu6050.c     ****     Timer_ReadStatusRegister();
  56:mpu6050.c     **** }
  57:mpu6050.c     **** 
  58:mpu6050.c     **** 
  59:mpu6050.c     **** 
  60:mpu6050.c     **** 
  61:mpu6050.c     **** static void StartCounter()
  62:mpu6050.c     **** {
  63:mpu6050.c     ****     counter_started = 1;
  64:mpu6050.c     **** }
  65:mpu6050.c     **** 
  66:mpu6050.c     **** 
  67:mpu6050.c     **** 
  68:mpu6050.c     **** static void StopCounter()
  69:mpu6050.c     **** {
  70:mpu6050.c     ****     counter_started = 0;
  71:mpu6050.c     **** }
  72:mpu6050.c     **** 
  73:mpu6050.c     **** 
  74:mpu6050.c     **** 
  75:mpu6050.c     **** 
  76:mpu6050.c     **** static void GetElapsedTimeS(float *elapsed_t)
  77:mpu6050.c     **** {
  29              		.loc 1 77 0
  30              		.cfi_startproc
  31              		@ args = 0, pretend = 0, frame = 0
  32              		@ frame_needed = 0, uses_anonymous_args = 0
  33              	.LVL0:
  34 0000 10B5     		push	{r4, lr}
  35              		.cfi_def_cfa_offset 8
  36              		.cfi_offset 4, -8
  37              		.cfi_offset 14, -4
ARM GAS  C:\Users\ibrah\AppData\Local\Temp\ccq2XVhz.s 			page 3


  38 0002 0446     		mov	r4, r0
  78:mpu6050.c     ****     *elapsed_t = (float)counter / 1000.0;   
  39              		.loc 1 78 0
  40 0004 044B     		ldr	r3, .L3
  41 0006 1868     		ldr	r0, [r3]
  42              	.LVL1:
  43 0008 FFF7FEFF 		bl	__aeabi_ui2f
  44              	.LVL2:
  45 000c 0349     		ldr	r1, .L3+4
  46 000e FFF7FEFF 		bl	__aeabi_fdiv
  47              	.LVL3:
  48 0012 2060     		str	r0, [r4]	@ float
  49 0014 10BD     		pop	{r4, pc}
  50              	.LVL4:
  51              	.L4:
  52 0016 00BF     		.align	2
  53              	.L3:
  54 0018 00000000 		.word	.LANCHOR0
  55 001c 00007A44 		.word	1148846080
  56              		.cfi_endproc
  57              	.LFE67:
  58              		.size	GetElapsedTimeS, .-GetElapsedTimeS
  59              		.section	.text.ISR_1_Handler,"ax",%progbits
  60              		.align	2
  61              		.global	ISR_1_Handler
  62              		.thumb
  63              		.thumb_func
  64              		.type	ISR_1_Handler, %function
  65              	ISR_1_Handler:
  66              	.LFB64:
  47:mpu6050.c     ****     
  67              		.loc 1 47 0
  68              		.cfi_startproc
  69              		@ args = 0, pretend = 0, frame = 0
  70              		@ frame_needed = 0, uses_anonymous_args = 0
  71 0000 08B5     		push	{r3, lr}
  72              		.cfi_def_cfa_offset 8
  73              		.cfi_offset 3, -8
  74              		.cfi_offset 14, -4
  49:mpu6050.c     ****     {
  75              		.loc 1 49 0
  76 0002 074B     		ldr	r3, .L8
  77 0004 5B68     		ldr	r3, [r3, #4]
  78 0006 012B     		cmp	r3, #1
  79 0008 03D1     		bne	.L6
  51:mpu6050.c     ****     }
  80              		.loc 1 51 0
  81 000a 054A     		ldr	r2, .L8
  82 000c 1368     		ldr	r3, [r2]
  83 000e 0133     		adds	r3, r3, #1
  84 0010 1360     		str	r3, [r2]
  85              	.L6:
  54:mpu6050.c     ****     Timer_ReadStatusRegister();
  86              		.loc 1 54 0
  87 0012 0122     		movs	r2, #1
  88 0014 024B     		ldr	r3, .L8
  89 0016 1A72     		strb	r2, [r3, #8]
ARM GAS  C:\Users\ibrah\AppData\Local\Temp\ccq2XVhz.s 			page 4


  55:mpu6050.c     **** }
  90              		.loc 1 55 0
  91 0018 FFF7FEFF 		bl	Timer_ReadStatusRegister
  92              	.LVL5:
  93 001c 08BD     		pop	{r3, pc}
  94              	.L9:
  95 001e 00BF     		.align	2
  96              	.L8:
  97 0020 00000000 		.word	.LANCHOR0
  98              		.cfi_endproc
  99              	.LFE64:
 100              		.size	ISR_1_Handler, .-ISR_1_Handler
 101              		.section	.text.MPU6050_GetRawData,"ax",%progbits
 102              		.align	2
 103              		.thumb
 104              		.thumb_func
 105              		.type	MPU6050_GetRawData, %function
 106              	MPU6050_GetRawData:
 107              	.LFB71:
  79:mpu6050.c     **** }
  80:mpu6050.c     **** 
  81:mpu6050.c     **** 
  82:mpu6050.c     **** 
  83:mpu6050.c     **** void ResetCounter()
  84:mpu6050.c     **** {
  85:mpu6050.c     ****     counter = 0;
  86:mpu6050.c     **** }
  87:mpu6050.c     **** 
  88:mpu6050.c     **** 
  89:mpu6050.c     **** 
  90:mpu6050.c     **** 
  91:mpu6050.c     **** 
  92:mpu6050.c     **** 
  93:mpu6050.c     **** void MPU6050_PreInit()
  94:mpu6050.c     **** {
  95:mpu6050.c     ****     ISR_StartEx(ISR_1_Handler);
  96:mpu6050.c     ****     Timer_Start();
  97:mpu6050.c     ****     
  98:mpu6050.c     ****     UART_PutString("Timer and ISR Started\n");
  99:mpu6050.c     ****     
 100:mpu6050.c     **** }
 101:mpu6050.c     **** 
 102:mpu6050.c     **** 
 103:mpu6050.c     **** 
 104:mpu6050.c     **** void MPU6050_Init()
 105:mpu6050.c     **** {
 106:mpu6050.c     **** 
 107:mpu6050.c     ****     
 108:mpu6050.c     ****     
 109:mpu6050.c     ****     UART_PutString("Entered MPU6050 Initialization... \n");
 110:mpu6050.c     **** 
 111:mpu6050.c     ****     I2C_MPU6050_Start();
 112:mpu6050.c     ****     UART_PutString("I2C Started\n");
 113:mpu6050.c     ****     UART_PutString("Beginnig Initialization of MPU... \n");
 114:mpu6050.c     ****     UART_PutString("Writing to Power Management Register... \n");
 115:mpu6050.c     ****     
 116:mpu6050.c     ****     
ARM GAS  C:\Users\ibrah\AppData\Local\Temp\ccq2XVhz.s 			page 5


 117:mpu6050.c     ****     uint8 pwmt_cmd[2];
 118:mpu6050.c     ****     pwmt_cmd[0]  = MPU6050_PWM_1; // writing to the register 107 - Power Management
 119:mpu6050.c     ****     pwmt_cmd[1] = 0x00;
 120:mpu6050.c     ****     I2C_MPU6050_MasterWriteBuf(MPU6050_ADDRESS, pwmt_cmd, 2, I2C_MPU6050_MODE_COMPLETE_XFER); // wr
 121:mpu6050.c     ****     
 122:mpu6050.c     **** 
 123:mpu6050.c     ****     
 124:mpu6050.c     ****     while((I2C_MPU6050_MasterStatus() & I2C_MPU6050_MSTAT_WR_CMPLT) == 0){}
 125:mpu6050.c     ****         
 126:mpu6050.c     ****     UART_PutChar('R');
 127:mpu6050.c     ****     UART_PutChar(I2C_MPU6050_MasterClearStatus());
 128:mpu6050.c     ****     UART_PutChar(I2C_MPU6050_MasterStatus());
 129:mpu6050.c     ****     
 130:mpu6050.c     **** 
 131:mpu6050.c     ****     
 132:mpu6050.c     ****     // Accelerometer configuration - default +/- 2g
 133:mpu6050.c     ****     UART_PutString("Configuration: Writing to accelerometer register... \n");
 134:mpu6050.c     ****     uint8_t accel_config[2];
 135:mpu6050.c     ****     accel_config[0] = 0x1C; // accelerometer register
 136:mpu6050.c     ****     accel_config[1] = 0x00; // set full Scale Range to +/- 2g
 137:mpu6050.c     ****     I2C_MPU6050_MasterWriteBuf(MPU6050_ADDRESS, accel_config, 2, I2C_MPU6050_MODE_COMPLETE_XFER);
 138:mpu6050.c     ****     UART_PutString("\nR");
 139:mpu6050.c     ****     UART_PutChar(I2C_MPU6050_MasterClearStatus());
 140:mpu6050.c     ****     UART_PutChar(I2C_MPU6050_MasterStatus());
 141:mpu6050.c     ****     UART_PutString("Done.\n");
 142:mpu6050.c     ****     
 143:mpu6050.c     ****     // Gyroscope configuration - default +/- 250 deg/s
 144:mpu6050.c     ****     UART_PutString("Configuration: Writing to gyroscope register... \n");
 145:mpu6050.c     ****     uint8_t gyro_config[2];
 146:mpu6050.c     ****     gyro_config[0] =  0x1B; // gyroscope register
 147:mpu6050.c     ****     gyro_config[1] =  0x00; // set full Scale Range to 250deg/s
 148:mpu6050.c     ****     I2C_MPU6050_MasterWriteBuf(MPU6050_ADDRESS, gyro_config, 2, I2C_MPU6050_MODE_COMPLETE_XFER);
 149:mpu6050.c     ****     UART_PutString("\nR");
 150:mpu6050.c     ****     UART_PutChar(I2C_MPU6050_MasterClearStatus());
 151:mpu6050.c     ****     UART_PutChar(I2C_MPU6050_MasterStatus());
 152:mpu6050.c     ****     UART_PutString("Done.\n");
 153:mpu6050.c     ****     
 154:mpu6050.c     **** 
 155:mpu6050.c     **** 
 156:mpu6050.c     ****     UART_PutString("MPU6050 Initialized. \n");
 157:mpu6050.c     **** }
 158:mpu6050.c     **** 
 159:mpu6050.c     **** 
 160:mpu6050.c     **** 
 161:mpu6050.c     **** 
 162:mpu6050.c     **** 
 163:mpu6050.c     **** 
 164:mpu6050.c     **** static void MPU6050_GetRawData()
 165:mpu6050.c     **** {
 108              		.loc 1 165 0
 109              		.cfi_startproc
 110              		@ args = 0, pretend = 0, frame = 8
 111              		@ frame_needed = 0, uses_anonymous_args = 0
 112 0000 10B5     		push	{r4, lr}
 113              		.cfi_def_cfa_offset 8
 114              		.cfi_offset 4, -8
 115              		.cfi_offset 14, -4
ARM GAS  C:\Users\ibrah\AppData\Local\Temp\ccq2XVhz.s 			page 6


 116 0002 82B0     		sub	sp, sp, #8
 117              		.cfi_def_cfa_offset 16
 166:mpu6050.c     ****     
 167:mpu6050.c     ****     uint8_t cmd[1];
 168:mpu6050.c     ****     cmd[0] = MPU6050_RA_ACCEL_XOUT_H;
 118              		.loc 1 168 0
 119 0004 02A9     		add	r1, sp, #8
 120 0006 3B23     		movs	r3, #59
 121 0008 01F8043D 		strb	r3, [r1, #-4]!
 169:mpu6050.c     ****     I2C_MPU6050_MasterWriteBuf(MPU6050_ADDRESS, cmd, 1, I2C_MPU6050_MODE_COMPLETE_XFER); // Sending
 122              		.loc 1 169 0
 123 000c 0023     		movs	r3, #0
 124 000e 0122     		movs	r2, #1
 125 0010 6820     		movs	r0, #104
 126 0012 FFF7FEFF 		bl	I2C_MPU6050_MasterWriteBuf
 127              	.LVL6:
 128              	.L11:
 170:mpu6050.c     ****     while ((I2C_MPU6050_MasterStatus() & I2C_MPU6050_MSTAT_WR_CMPLT)==0){}
 129              		.loc 1 170 0 discriminator 1
 130 0016 FFF7FEFF 		bl	I2C_MPU6050_MasterStatus
 131              	.LVL7:
 132 001a 10F0020F 		tst	r0, #2
 133 001e FAD0     		beq	.L11
 171:mpu6050.c     ****     I2C_MPU6050_MasterGetWriteBufSize();
 134              		.loc 1 171 0
 135 0020 FFF7FEFF 		bl	I2C_MPU6050_MasterGetWriteBufSize
 136              	.LVL8:
 172:mpu6050.c     ****     I2C_MPU6050_MasterReadBuf(MPU6050_ADDRESS, i2c_buffer, 14, I2C_MPU6050_MODE_COMPLETE_XFER); // 
 137              		.loc 1 172 0
 138 0024 164C     		ldr	r4, .L13
 139 0026 0023     		movs	r3, #0
 140 0028 0E22     		movs	r2, #14
 141 002a 04F10C01 		add	r1, r4, #12
 142 002e 6820     		movs	r0, #104
 143 0030 FFF7FEFF 		bl	I2C_MPU6050_MasterReadBuf
 144              	.LVL9:
 173:mpu6050.c     **** 
 174:mpu6050.c     **** 
 175:mpu6050.c     ****     data.raw_ax = (((int16_t)i2c_buffer[0]) << 8) | i2c_buffer[1];
 145              		.loc 1 175 0
 146 0034 227B     		ldrb	r2, [r4, #12]	@ zero_extendqisi2
 147 0036 637B     		ldrb	r3, [r4, #13]	@ zero_extendqisi2
 148 0038 43EA0223 		orr	r3, r3, r2, lsl #8
 149 003c A384     		strh	r3, [r4, #36]	@ movhi
 176:mpu6050.c     ****     data.raw_ay = (((int16_t)i2c_buffer[2]) << 8) | i2c_buffer[3];
 150              		.loc 1 176 0
 151 003e A27B     		ldrb	r2, [r4, #14]	@ zero_extendqisi2
 152 0040 E37B     		ldrb	r3, [r4, #15]	@ zero_extendqisi2
 153 0042 43EA0223 		orr	r3, r3, r2, lsl #8
 154 0046 E384     		strh	r3, [r4, #38]	@ movhi
 177:mpu6050.c     ****     data.raw_az = (((int16_t)i2c_buffer[4]) << 8) | i2c_buffer[5];
 155              		.loc 1 177 0
 156 0048 227C     		ldrb	r2, [r4, #16]	@ zero_extendqisi2
 157 004a 637C     		ldrb	r3, [r4, #17]	@ zero_extendqisi2
 158 004c 43EA0223 		orr	r3, r3, r2, lsl #8
 159 0050 2385     		strh	r3, [r4, #40]	@ movhi
 178:mpu6050.c     ****     data.raw_t  = (((int16_t)i2c_buffer[6]) << 8) | i2c_buffer[7];
ARM GAS  C:\Users\ibrah\AppData\Local\Temp\ccq2XVhz.s 			page 7


 160              		.loc 1 178 0
 161 0052 A27C     		ldrb	r2, [r4, #18]	@ zero_extendqisi2
 162 0054 E37C     		ldrb	r3, [r4, #19]	@ zero_extendqisi2
 163 0056 43EA0223 		orr	r3, r3, r2, lsl #8
 164 005a 2386     		strh	r3, [r4, #48]	@ movhi
 179:mpu6050.c     ****     data.raw_gx = (((int16_t)i2c_buffer[8]) << 8) | i2c_buffer[9];
 165              		.loc 1 179 0
 166 005c 227D     		ldrb	r2, [r4, #20]	@ zero_extendqisi2
 167 005e 637D     		ldrb	r3, [r4, #21]	@ zero_extendqisi2
 168 0060 43EA0223 		orr	r3, r3, r2, lsl #8
 169 0064 6385     		strh	r3, [r4, #42]	@ movhi
 180:mpu6050.c     ****     data.raw_gy = (((int16_t)i2c_buffer[10]) << 8) | i2c_buffer[11];
 170              		.loc 1 180 0
 171 0066 A27D     		ldrb	r2, [r4, #22]	@ zero_extendqisi2
 172 0068 E37D     		ldrb	r3, [r4, #23]	@ zero_extendqisi2
 173 006a 43EA0223 		orr	r3, r3, r2, lsl #8
 174 006e A385     		strh	r3, [r4, #44]	@ movhi
 181:mpu6050.c     ****     data.raw_gz = (((int16_t)i2c_buffer[12]) << 8) | i2c_buffer[13];
 175              		.loc 1 181 0
 176 0070 227E     		ldrb	r2, [r4, #24]	@ zero_extendqisi2
 177 0072 637E     		ldrb	r3, [r4, #25]	@ zero_extendqisi2
 178 0074 43EA0223 		orr	r3, r3, r2, lsl #8
 179 0078 E385     		strh	r3, [r4, #46]	@ movhi
 182:mpu6050.c     ****     
 183:mpu6050.c     **** }
 180              		.loc 1 183 0
 181 007a 02B0     		add	sp, sp, #8
 182              		.cfi_def_cfa_offset 8
 183              		@ sp needed
 184 007c 10BD     		pop	{r4, pc}
 185              	.L14:
 186 007e 00BF     		.align	2
 187              	.L13:
 188 0080 00000000 		.word	.LANCHOR0
 189              		.cfi_endproc
 190              	.LFE71:
 191              		.size	MPU6050_GetRawData, .-MPU6050_GetRawData
 192              		.section	.text.ResetCounter,"ax",%progbits
 193              		.align	2
 194              		.global	ResetCounter
 195              		.thumb
 196              		.thumb_func
 197              		.type	ResetCounter, %function
 198              	ResetCounter:
 199              	.LFB68:
  84:mpu6050.c     ****     counter = 0;
 200              		.loc 1 84 0
 201              		.cfi_startproc
 202              		@ args = 0, pretend = 0, frame = 0
 203              		@ frame_needed = 0, uses_anonymous_args = 0
 204              		@ link register save eliminated.
  85:mpu6050.c     **** }
 205              		.loc 1 85 0
 206 0000 0022     		movs	r2, #0
 207 0002 014B     		ldr	r3, .L16
 208 0004 1A60     		str	r2, [r3]
 209 0006 7047     		bx	lr
ARM GAS  C:\Users\ibrah\AppData\Local\Temp\ccq2XVhz.s 			page 8


 210              	.L17:
 211              		.align	2
 212              	.L16:
 213 0008 00000000 		.word	.LANCHOR0
 214              		.cfi_endproc
 215              	.LFE68:
 216              		.size	ResetCounter, .-ResetCounter
 217              		.section	.text.MPU6050_PreInit,"ax",%progbits
 218              		.align	2
 219              		.global	MPU6050_PreInit
 220              		.thumb
 221              		.thumb_func
 222              		.type	MPU6050_PreInit, %function
 223              	MPU6050_PreInit:
 224              	.LFB69:
  94:mpu6050.c     ****     ISR_StartEx(ISR_1_Handler);
 225              		.loc 1 94 0
 226              		.cfi_startproc
 227              		@ args = 0, pretend = 0, frame = 0
 228              		@ frame_needed = 0, uses_anonymous_args = 0
 229 0000 08B5     		push	{r3, lr}
 230              		.cfi_def_cfa_offset 8
 231              		.cfi_offset 3, -8
 232              		.cfi_offset 14, -4
  95:mpu6050.c     ****     Timer_Start();
 233              		.loc 1 95 0
 234 0002 0448     		ldr	r0, .L20
 235 0004 FFF7FEFF 		bl	ISR_StartEx
 236              	.LVL10:
  96:mpu6050.c     ****     
 237              		.loc 1 96 0
 238 0008 FFF7FEFF 		bl	Timer_Start
 239              	.LVL11:
  98:mpu6050.c     ****     
 240              		.loc 1 98 0
 241 000c 0248     		ldr	r0, .L20+4
 242 000e FFF7FEFF 		bl	UART_PutString
 243              	.LVL12:
 244 0012 08BD     		pop	{r3, pc}
 245              	.L21:
 246              		.align	2
 247              	.L20:
 248 0014 00000000 		.word	ISR_1_Handler
 249 0018 00000000 		.word	.LC0
 250              		.cfi_endproc
 251              	.LFE69:
 252              		.size	MPU6050_PreInit, .-MPU6050_PreInit
 253              		.section	.text.MPU6050_Init,"ax",%progbits
 254              		.align	2
 255              		.global	MPU6050_Init
 256              		.thumb
 257              		.thumb_func
 258              		.type	MPU6050_Init, %function
 259              	MPU6050_Init:
 260              	.LFB70:
 105:mpu6050.c     **** 
 261              		.loc 1 105 0
ARM GAS  C:\Users\ibrah\AppData\Local\Temp\ccq2XVhz.s 			page 9


 262              		.cfi_startproc
 263              		@ args = 0, pretend = 0, frame = 16
 264              		@ frame_needed = 0, uses_anonymous_args = 0
 265 0000 70B5     		push	{r4, r5, r6, lr}
 266              		.cfi_def_cfa_offset 16
 267              		.cfi_offset 4, -16
 268              		.cfi_offset 5, -12
 269              		.cfi_offset 6, -8
 270              		.cfi_offset 14, -4
 271 0002 84B0     		sub	sp, sp, #16
 272              		.cfi_def_cfa_offset 32
 109:mpu6050.c     **** 
 273              		.loc 1 109 0
 274 0004 3448     		ldr	r0, .L25
 275 0006 FFF7FEFF 		bl	UART_PutString
 276              	.LVL13:
 111:mpu6050.c     ****     UART_PutString("I2C Started\n");
 277              		.loc 1 111 0
 278 000a FFF7FEFF 		bl	I2C_MPU6050_Start
 279              	.LVL14:
 112:mpu6050.c     ****     UART_PutString("Beginnig Initialization of MPU... \n");
 280              		.loc 1 112 0
 281 000e 3348     		ldr	r0, .L25+4
 282 0010 FFF7FEFF 		bl	UART_PutString
 283              	.LVL15:
 113:mpu6050.c     ****     UART_PutString("Writing to Power Management Register... \n");
 284              		.loc 1 113 0
 285 0014 3248     		ldr	r0, .L25+8
 286 0016 FFF7FEFF 		bl	UART_PutString
 287              	.LVL16:
 114:mpu6050.c     ****     
 288              		.loc 1 114 0
 289 001a 3248     		ldr	r0, .L25+12
 290 001c FFF7FEFF 		bl	UART_PutString
 291              	.LVL17:
 118:mpu6050.c     ****     pwmt_cmd[1] = 0x00;
 292              		.loc 1 118 0
 293 0020 6B23     		movs	r3, #107
 294 0022 8DF80C30 		strb	r3, [sp, #12]
 119:mpu6050.c     ****     I2C_MPU6050_MasterWriteBuf(MPU6050_ADDRESS, pwmt_cmd, 2, I2C_MPU6050_MODE_COMPLETE_XFER); // wr
 295              		.loc 1 119 0
 296 0026 0023     		movs	r3, #0
 297 0028 8DF80D30 		strb	r3, [sp, #13]
 120:mpu6050.c     ****     
 298              		.loc 1 120 0
 299 002c 0222     		movs	r2, #2
 300 002e 03A9     		add	r1, sp, #12
 301 0030 6820     		movs	r0, #104
 302 0032 FFF7FEFF 		bl	I2C_MPU6050_MasterWriteBuf
 303              	.LVL18:
 304              	.L23:
 124:mpu6050.c     ****         
 305              		.loc 1 124 0 discriminator 1
 306 0036 FFF7FEFF 		bl	I2C_MPU6050_MasterStatus
 307              	.LVL19:
 308 003a 10F0020F 		tst	r0, #2
 309 003e FAD0     		beq	.L23
ARM GAS  C:\Users\ibrah\AppData\Local\Temp\ccq2XVhz.s 			page 10


 126:mpu6050.c     ****     UART_PutChar(I2C_MPU6050_MasterClearStatus());
 310              		.loc 1 126 0
 311 0040 5220     		movs	r0, #82
 312 0042 FFF7FEFF 		bl	UART_PutChar
 313              	.LVL20:
 127:mpu6050.c     ****     UART_PutChar(I2C_MPU6050_MasterStatus());
 314              		.loc 1 127 0
 315 0046 FFF7FEFF 		bl	I2C_MPU6050_MasterClearStatus
 316              	.LVL21:
 317 004a FFF7FEFF 		bl	UART_PutChar
 318              	.LVL22:
 128:mpu6050.c     ****     
 319              		.loc 1 128 0
 320 004e FFF7FEFF 		bl	I2C_MPU6050_MasterStatus
 321              	.LVL23:
 322 0052 FFF7FEFF 		bl	UART_PutChar
 323              	.LVL24:
 133:mpu6050.c     ****     uint8_t accel_config[2];
 324              		.loc 1 133 0
 325 0056 2448     		ldr	r0, .L25+16
 326 0058 FFF7FEFF 		bl	UART_PutString
 327              	.LVL25:
 135:mpu6050.c     ****     accel_config[1] = 0x00; // set full Scale Range to +/- 2g
 328              		.loc 1 135 0
 329 005c 1C23     		movs	r3, #28
 330 005e 8DF80830 		strb	r3, [sp, #8]
 136:mpu6050.c     ****     I2C_MPU6050_MasterWriteBuf(MPU6050_ADDRESS, accel_config, 2, I2C_MPU6050_MODE_COMPLETE_XFER);
 331              		.loc 1 136 0
 332 0062 0024     		movs	r4, #0
 333 0064 8DF80940 		strb	r4, [sp, #9]
 137:mpu6050.c     ****     UART_PutString("\nR");
 334              		.loc 1 137 0
 335 0068 2346     		mov	r3, r4
 336 006a 0222     		movs	r2, #2
 337 006c 02A9     		add	r1, sp, #8
 338 006e 6820     		movs	r0, #104
 339 0070 FFF7FEFF 		bl	I2C_MPU6050_MasterWriteBuf
 340              	.LVL26:
 138:mpu6050.c     ****     UART_PutChar(I2C_MPU6050_MasterClearStatus());
 341              		.loc 1 138 0
 342 0074 1D4E     		ldr	r6, .L25+20
 343 0076 3046     		mov	r0, r6
 344 0078 FFF7FEFF 		bl	UART_PutString
 345              	.LVL27:
 139:mpu6050.c     ****     UART_PutChar(I2C_MPU6050_MasterStatus());
 346              		.loc 1 139 0
 347 007c FFF7FEFF 		bl	I2C_MPU6050_MasterClearStatus
 348              	.LVL28:
 349 0080 FFF7FEFF 		bl	UART_PutChar
 350              	.LVL29:
 140:mpu6050.c     ****     UART_PutString("Done.\n");
 351              		.loc 1 140 0
 352 0084 FFF7FEFF 		bl	I2C_MPU6050_MasterStatus
 353              	.LVL30:
 354 0088 FFF7FEFF 		bl	UART_PutChar
 355              	.LVL31:
 141:mpu6050.c     ****     
ARM GAS  C:\Users\ibrah\AppData\Local\Temp\ccq2XVhz.s 			page 11


 356              		.loc 1 141 0
 357 008c 184D     		ldr	r5, .L25+24
 358 008e 2846     		mov	r0, r5
 359 0090 FFF7FEFF 		bl	UART_PutString
 360              	.LVL32:
 144:mpu6050.c     ****     uint8_t gyro_config[2];
 361              		.loc 1 144 0
 362 0094 1748     		ldr	r0, .L25+28
 363 0096 FFF7FEFF 		bl	UART_PutString
 364              	.LVL33:
 146:mpu6050.c     ****     gyro_config[1] =  0x00; // set full Scale Range to 250deg/s
 365              		.loc 1 146 0
 366 009a 1B23     		movs	r3, #27
 367 009c 8DF80430 		strb	r3, [sp, #4]
 147:mpu6050.c     ****     I2C_MPU6050_MasterWriteBuf(MPU6050_ADDRESS, gyro_config, 2, I2C_MPU6050_MODE_COMPLETE_XFER);
 368              		.loc 1 147 0
 369 00a0 8DF80540 		strb	r4, [sp, #5]
 148:mpu6050.c     ****     UART_PutString("\nR");
 370              		.loc 1 148 0
 371 00a4 2346     		mov	r3, r4
 372 00a6 0222     		movs	r2, #2
 373 00a8 01A9     		add	r1, sp, #4
 374 00aa 6820     		movs	r0, #104
 375 00ac FFF7FEFF 		bl	I2C_MPU6050_MasterWriteBuf
 376              	.LVL34:
 149:mpu6050.c     ****     UART_PutChar(I2C_MPU6050_MasterClearStatus());
 377              		.loc 1 149 0
 378 00b0 3046     		mov	r0, r6
 379 00b2 FFF7FEFF 		bl	UART_PutString
 380              	.LVL35:
 150:mpu6050.c     ****     UART_PutChar(I2C_MPU6050_MasterStatus());
 381              		.loc 1 150 0
 382 00b6 FFF7FEFF 		bl	I2C_MPU6050_MasterClearStatus
 383              	.LVL36:
 384 00ba FFF7FEFF 		bl	UART_PutChar
 385              	.LVL37:
 151:mpu6050.c     ****     UART_PutString("Done.\n");
 386              		.loc 1 151 0
 387 00be FFF7FEFF 		bl	I2C_MPU6050_MasterStatus
 388              	.LVL38:
 389 00c2 FFF7FEFF 		bl	UART_PutChar
 390              	.LVL39:
 152:mpu6050.c     ****     
 391              		.loc 1 152 0
 392 00c6 2846     		mov	r0, r5
 393 00c8 FFF7FEFF 		bl	UART_PutString
 394              	.LVL40:
 156:mpu6050.c     **** }
 395              		.loc 1 156 0
 396 00cc 0A48     		ldr	r0, .L25+32
 397 00ce FFF7FEFF 		bl	UART_PutString
 398              	.LVL41:
 157:mpu6050.c     **** 
 399              		.loc 1 157 0
 400 00d2 04B0     		add	sp, sp, #16
 401              		.cfi_def_cfa_offset 16
 402              		@ sp needed
ARM GAS  C:\Users\ibrah\AppData\Local\Temp\ccq2XVhz.s 			page 12


 403 00d4 70BD     		pop	{r4, r5, r6, pc}
 404              	.L26:
 405 00d6 00BF     		.align	2
 406              	.L25:
 407 00d8 18000000 		.word	.LC1
 408 00dc 3C000000 		.word	.LC2
 409 00e0 4C000000 		.word	.LC3
 410 00e4 70000000 		.word	.LC4
 411 00e8 9C000000 		.word	.LC5
 412 00ec D4000000 		.word	.LC6
 413 00f0 D8000000 		.word	.LC7
 414 00f4 E0000000 		.word	.LC8
 415 00f8 14010000 		.word	.LC9
 416              		.cfi_endproc
 417              	.LFE70:
 418              		.size	MPU6050_Init, .-MPU6050_Init
 419              		.section	.text.MPU6050_Calibrate,"ax",%progbits
 420              		.align	2
 421              		.global	MPU6050_Calibrate
 422              		.thumb
 423              		.thumb_func
 424              		.type	MPU6050_Calibrate, %function
 425              	MPU6050_Calibrate:
 426              	.LFB72:
 184:mpu6050.c     **** 
 185:mpu6050.c     **** 
 186:mpu6050.c     **** void MPU6050_Calibrate(){
 427              		.loc 1 186 0
 428              		.cfi_startproc
 429              		@ args = 0, pretend = 0, frame = 0
 430              		@ frame_needed = 0, uses_anonymous_args = 0
 431 0000 10B5     		push	{r4, lr}
 432              		.cfi_def_cfa_offset 8
 433              		.cfi_offset 4, -8
 434              		.cfi_offset 14, -4
 187:mpu6050.c     ****     
 188:mpu6050.c     ****     data.raw_ax = 0;
 435              		.loc 1 188 0
 436 0002 3C4B     		ldr	r3, .L31
 437 0004 0024     		movs	r4, #0
 438 0006 9C84     		strh	r4, [r3, #36]	@ movhi
 189:mpu6050.c     ****     data.raw_ay = 0;
 439              		.loc 1 189 0
 440 0008 DC84     		strh	r4, [r3, #38]	@ movhi
 190:mpu6050.c     ****     data.raw_az = 0;
 441              		.loc 1 190 0
 442 000a 1C85     		strh	r4, [r3, #40]	@ movhi
 191:mpu6050.c     ****     data.raw_gx = 0;
 443              		.loc 1 191 0
 444 000c 5C85     		strh	r4, [r3, #42]	@ movhi
 192:mpu6050.c     ****     data.raw_gy = 0;
 445              		.loc 1 192 0
 446 000e 9C85     		strh	r4, [r3, #44]	@ movhi
 193:mpu6050.c     ****     data.raw_gz = 0;
 447              		.loc 1 193 0
 448 0010 DC85     		strh	r4, [r3, #46]	@ movhi
 194:mpu6050.c     ****     
ARM GAS  C:\Users\ibrah\AppData\Local\Temp\ccq2XVhz.s 			page 13


 195:mpu6050.c     ****     calib.ax_offset = 0;
 449              		.loc 1 195 0
 450 0012 DC66     		str	r4, [r3, #108]
 196:mpu6050.c     ****     calib.ay_offset = 0;
 451              		.loc 1 196 0
 452 0014 1C67     		str	r4, [r3, #112]
 197:mpu6050.c     ****     calib.az_offset = 0;
 453              		.loc 1 197 0
 454 0016 5C67     		str	r4, [r3, #116]
 198:mpu6050.c     ****     calib.gx_offset = 0;
 455              		.loc 1 198 0
 456 0018 9C67     		str	r4, [r3, #120]
 199:mpu6050.c     ****     calib.gy_offset = 0;
 457              		.loc 1 199 0
 458 001a DC67     		str	r4, [r3, #124]
 200:mpu6050.c     ****     calib.gz_offset = 0;
 459              		.loc 1 200 0
 460 001c C3F88040 		str	r4, [r3, #128]
 201:mpu6050.c     ****     
 202:mpu6050.c     ****     data.ax = 0;
 461              		.loc 1 202 0
 462 0020 0022     		movs	r2, #0
 463 0022 9A63     		str	r2, [r3, #56]	@ float
 203:mpu6050.c     ****     data.ay = 0;
 464              		.loc 1 203 0
 465 0024 DA63     		str	r2, [r3, #60]	@ float
 204:mpu6050.c     ****     data.az = 0;
 466              		.loc 1 204 0
 467 0026 1A64     		str	r2, [r3, #64]	@ float
 205:mpu6050.c     ****     data.gx = 0;
 468              		.loc 1 205 0
 469 0028 5A64     		str	r2, [r3, #68]	@ float
 206:mpu6050.c     ****     data.gy = 0;
 470              		.loc 1 206 0
 471 002a 9A64     		str	r2, [r3, #72]	@ float
 207:mpu6050.c     ****     data.gz = 0;
 472              		.loc 1 207 0
 473 002c DA64     		str	r2, [r3, #76]	@ float
 208:mpu6050.c     ****     data.gx_angle = 0;
 474              		.loc 1 208 0
 475 002e 5A65     		str	r2, [r3, #84]	@ float
 209:mpu6050.c     ****     data.gy_angle = 0;
 476              		.loc 1 209 0
 477 0030 9A65     		str	r2, [r3, #88]	@ float
 210:mpu6050.c     ****     data.gz_angle = 0;
 478              		.loc 1 210 0
 479 0032 DA65     		str	r2, [r3, #92]	@ float
 480              	.LVL42:
 481              	.LBB2:
 211:mpu6050.c     **** 
 212:mpu6050.c     ****     int32_t n_calib = 2000;
 213:mpu6050.c     ****     
 214:mpu6050.c     ****     for (int32_t i = 0; i < n_calib; i++) {
 482              		.loc 1 214 0
 483 0034 26E0     		b	.L28
 484              	.LVL43:
 485              	.L29:
ARM GAS  C:\Users\ibrah\AppData\Local\Temp\ccq2XVhz.s 			page 14


 215:mpu6050.c     ****         
 216:mpu6050.c     ****         MPU6050_GetRawData();
 486              		.loc 1 216 0 discriminator 3
 487 0036 FFF7FEFF 		bl	MPU6050_GetRawData
 488              	.LVL44:
 217:mpu6050.c     ****         
 218:mpu6050.c     ****         calib.ax_offset += data.raw_ax; 
 489              		.loc 1 218 0 discriminator 3
 490 003a 2E4B     		ldr	r3, .L31
 491 003c B3F92420 		ldrsh	r2, [r3, #36]
 492 0040 D96E     		ldr	r1, [r3, #108]
 493 0042 0A44     		add	r2, r2, r1
 494 0044 DA66     		str	r2, [r3, #108]
 219:mpu6050.c     ****         calib.ay_offset += data.raw_ay; 
 495              		.loc 1 219 0 discriminator 3
 496 0046 B3F92620 		ldrsh	r2, [r3, #38]
 497 004a 196F     		ldr	r1, [r3, #112]
 498 004c 0A44     		add	r2, r2, r1
 499 004e 1A67     		str	r2, [r3, #112]
 220:mpu6050.c     ****         calib.az_offset += data.raw_az; 
 500              		.loc 1 220 0 discriminator 3
 501 0050 B3F92820 		ldrsh	r2, [r3, #40]
 502 0054 596F     		ldr	r1, [r3, #116]
 503 0056 0A44     		add	r2, r2, r1
 504 0058 5A67     		str	r2, [r3, #116]
 221:mpu6050.c     ****         calib.gx_offset += data.raw_gx; 
 505              		.loc 1 221 0 discriminator 3
 506 005a B3F92A20 		ldrsh	r2, [r3, #42]
 507 005e 996F     		ldr	r1, [r3, #120]
 508 0060 0A44     		add	r2, r2, r1
 509 0062 9A67     		str	r2, [r3, #120]
 222:mpu6050.c     ****         calib.gy_offset += data.raw_gy;
 510              		.loc 1 222 0 discriminator 3
 511 0064 B3F92C20 		ldrsh	r2, [r3, #44]
 512 0068 D96F     		ldr	r1, [r3, #124]
 513 006a 0A44     		add	r2, r2, r1
 514 006c DA67     		str	r2, [r3, #124]
 223:mpu6050.c     ****         calib.gz_offset += data.raw_gz;
 515              		.loc 1 223 0 discriminator 3
 516 006e B3F92E20 		ldrsh	r2, [r3, #46]
 517 0072 D3F88010 		ldr	r1, [r3, #128]
 518 0076 0A44     		add	r2, r2, r1
 519 0078 C3F88020 		str	r2, [r3, #128]
 224:mpu6050.c     ****         CyDelay(1);
 520              		.loc 1 224 0 discriminator 3
 521 007c 0120     		movs	r0, #1
 522 007e FFF7FEFF 		bl	CyDelay
 523              	.LVL45:
 214:mpu6050.c     ****         
 524              		.loc 1 214 0 discriminator 3
 525 0082 0134     		adds	r4, r4, #1
 526              	.LVL46:
 527              	.L28:
 214:mpu6050.c     ****         
 528              		.loc 1 214 0 is_stmt 0 discriminator 1
 529 0084 B4F5FA6F 		cmp	r4, #2000
 530 0088 D5DB     		blt	.L29
ARM GAS  C:\Users\ibrah\AppData\Local\Temp\ccq2XVhz.s 			page 15


 531              	.LBE2:
 225:mpu6050.c     **** 
 226:mpu6050.c     ****     }
 227:mpu6050.c     ****     
 228:mpu6050.c     **** 
 229:mpu6050.c     ****     calib.ax_offset /= n_calib; 
 532              		.loc 1 229 0 is_stmt 1
 533 008a 1A4B     		ldr	r3, .L31
 534 008c D96E     		ldr	r1, [r3, #108]
 535 008e 1A4A     		ldr	r2, .L31+4
 536 0090 82FB0140 		smull	r4, r0, r2, r1
 537              	.LVL47:
 538 0094 C917     		asrs	r1, r1, #31
 539 0096 C1EBE011 		rsb	r1, r1, r0, asr #7
 540 009a D966     		str	r1, [r3, #108]
 230:mpu6050.c     ****     calib.ay_offset /= n_calib; 
 541              		.loc 1 230 0
 542 009c 196F     		ldr	r1, [r3, #112]
 543 009e 82FB0140 		smull	r4, r0, r2, r1
 544 00a2 C917     		asrs	r1, r1, #31
 545 00a4 C1EBE011 		rsb	r1, r1, r0, asr #7
 546 00a8 1967     		str	r1, [r3, #112]
 231:mpu6050.c     ****     calib.az_offset /= n_calib; 
 547              		.loc 1 231 0
 548 00aa 596F     		ldr	r1, [r3, #116]
 549 00ac 82FB0140 		smull	r4, r0, r2, r1
 550 00b0 C917     		asrs	r1, r1, #31
 551 00b2 C1EBE011 		rsb	r1, r1, r0, asr #7
 552 00b6 5967     		str	r1, [r3, #116]
 232:mpu6050.c     ****     calib.gx_offset /= n_calib; 
 553              		.loc 1 232 0
 554 00b8 996F     		ldr	r1, [r3, #120]
 555 00ba 82FB0140 		smull	r4, r0, r2, r1
 556 00be C917     		asrs	r1, r1, #31
 557 00c0 C1EBE011 		rsb	r1, r1, r0, asr #7
 558 00c4 9967     		str	r1, [r3, #120]
 233:mpu6050.c     ****     calib.gy_offset /= n_calib; 
 559              		.loc 1 233 0
 560 00c6 D96F     		ldr	r1, [r3, #124]
 561 00c8 82FB0140 		smull	r4, r0, r2, r1
 562 00cc C917     		asrs	r1, r1, #31
 563 00ce C1EBE011 		rsb	r1, r1, r0, asr #7
 564 00d2 D967     		str	r1, [r3, #124]
 234:mpu6050.c     ****     calib.gz_offset /= n_calib; 
 565              		.loc 1 234 0
 566 00d4 D3F88010 		ldr	r1, [r3, #128]
 567 00d8 82FB0102 		smull	r0, r2, r2, r1
 568 00dc C917     		asrs	r1, r1, #31
 569 00de C1EBE212 		rsb	r2, r1, r2, asr #7
 570 00e2 C3F88020 		str	r2, [r3, #128]
 235:mpu6050.c     ****     
 236:mpu6050.c     ****     
 237:mpu6050.c     ****     
 238:mpu6050.c     ****     MPU6050_is_calibrated = TRUE;
 571              		.loc 1 238 0
 572 00e6 0122     		movs	r2, #1
 573 00e8 83F88420 		strb	r2, [r3, #132]
ARM GAS  C:\Users\ibrah\AppData\Local\Temp\ccq2XVhz.s 			page 16


 239:mpu6050.c     ****     UART_PutString("CALIBRATION DONE!\n");
 574              		.loc 1 239 0
 575 00ec 0348     		ldr	r0, .L31+8
 576 00ee FFF7FEFF 		bl	UART_PutString
 577              	.LVL48:
 578 00f2 10BD     		pop	{r4, pc}
 579              	.L32:
 580              		.align	2
 581              	.L31:
 582 00f4 00000000 		.word	.LANCHOR0
 583 00f8 D34D6210 		.word	274877907
 584 00fc 2C010000 		.word	.LC10
 585              		.cfi_endproc
 586              	.LFE72:
 587              		.size	MPU6050_Calibrate, .-MPU6050_Calibrate
 588              		.section	.text.MPU6050_Start,"ax",%progbits
 589              		.align	2
 590              		.global	MPU6050_Start
 591              		.thumb
 592              		.thumb_func
 593              		.type	MPU6050_Start, %function
 594              	MPU6050_Start:
 595              	.LFB73:
 240:mpu6050.c     **** 
 241:mpu6050.c     **** }
 242:mpu6050.c     **** 
 243:mpu6050.c     **** 
 244:mpu6050.c     **** 
 245:mpu6050.c     **** 
 246:mpu6050.c     **** 
 247:mpu6050.c     **** void MPU6050_Start()
 248:mpu6050.c     **** {
 596              		.loc 1 248 0
 597              		.cfi_startproc
 598              		@ args = 0, pretend = 0, frame = 0
 599              		@ frame_needed = 0, uses_anonymous_args = 0
 600              		@ link register save eliminated.
 249:mpu6050.c     ****     counter_started = 1; 
 601              		.loc 1 249 0
 602 0000 0122     		movs	r2, #1
 603 0002 014B     		ldr	r3, .L34
 604 0004 5A60     		str	r2, [r3, #4]
 605 0006 7047     		bx	lr
 606              	.L35:
 607              		.align	2
 608              	.L34:
 609 0008 00000000 		.word	.LANCHOR0
 610              		.cfi_endproc
 611              	.LFE73:
 612              		.size	MPU6050_Start, .-MPU6050_Start
 613              		.section	.text.MPU6050_DataAvailable,"ax",%progbits
 614              		.align	2
 615              		.global	MPU6050_DataAvailable
 616              		.thumb
 617              		.thumb_func
 618              		.type	MPU6050_DataAvailable, %function
 619              	MPU6050_DataAvailable:
ARM GAS  C:\Users\ibrah\AppData\Local\Temp\ccq2XVhz.s 			page 17


 620              	.LFB74:
 250:mpu6050.c     **** }
 251:mpu6050.c     **** 
 252:mpu6050.c     **** 
 253:mpu6050.c     **** 
 254:mpu6050.c     **** uint8_t MPU6050_DataAvailable()
 255:mpu6050.c     **** {
 621              		.loc 1 255 0
 622              		.cfi_startproc
 623              		@ args = 0, pretend = 0, frame = 0
 624              		@ frame_needed = 0, uses_anonymous_args = 0
 625              		@ link register save eliminated.
 256:mpu6050.c     ****     return MPU6050_flag;
 257:mpu6050.c     **** }
 626              		.loc 1 257 0
 627 0000 014B     		ldr	r3, .L37
 628 0002 187A     		ldrb	r0, [r3, #8]	@ zero_extendqisi2
 629 0004 7047     		bx	lr
 630              	.L38:
 631 0006 00BF     		.align	2
 632              	.L37:
 633 0008 00000000 		.word	.LANCHOR0
 634              		.cfi_endproc
 635              	.LFE74:
 636              		.size	MPU6050_DataAvailable, .-MPU6050_DataAvailable
 637              		.global	__aeabi_i2f
 638              		.global	__aeabi_fmul
 639              		.global	__aeabi_f2d
 640              		.global	__aeabi_dmul
 641              		.global	__aeabi_d2f
 642              		.global	__aeabi_dadd
 643              		.global	__aeabi_fadd
 644              		.section	.text.MPU6050_ReadData,"ax",%progbits
 645              		.align	2
 646              		.global	MPU6050_ReadData
 647              		.thumb
 648              		.thumb_func
 649              		.type	MPU6050_ReadData, %function
 650              	MPU6050_ReadData:
 651              	.LFB75:
 258:mpu6050.c     **** 
 259:mpu6050.c     **** 
 260:mpu6050.c     **** 
 261:mpu6050.c     **** void MPU6050_ReadData()
 262:mpu6050.c     **** {
 652              		.loc 1 262 0
 653              		.cfi_startproc
 654              		@ args = 0, pretend = 0, frame = 0
 655              		@ frame_needed = 0, uses_anonymous_args = 0
 656 0000 2DE9F843 		push	{r3, r4, r5, r6, r7, r8, r9, lr}
 657              		.cfi_def_cfa_offset 32
 658              		.cfi_offset 3, -32
 659              		.cfi_offset 4, -28
 660              		.cfi_offset 5, -24
 661              		.cfi_offset 6, -20
 662              		.cfi_offset 7, -16
 663              		.cfi_offset 8, -12
ARM GAS  C:\Users\ibrah\AppData\Local\Temp\ccq2XVhz.s 			page 18


 664              		.cfi_offset 9, -8
 665              		.cfi_offset 14, -4
 263:mpu6050.c     **** 
 264:mpu6050.c     ****     MPU6050_flag = FALSE;
 666              		.loc 1 264 0
 667 0004 784C     		ldr	r4, .L41+24
 668 0006 0023     		movs	r3, #0
 669 0008 2372     		strb	r3, [r4, #8]
 265:mpu6050.c     ****     MPU6050_GetRawData();
 670              		.loc 1 265 0
 671 000a FFF7FEFF 		bl	MPU6050_GetRawData
 672              	.LVL49:
 266:mpu6050.c     ****     
 267:mpu6050.c     ****     // Process everything now
 268:mpu6050.c     ****     data.raw_ax -= calib.ax_offset;
 673              		.loc 1 268 0
 674 000e E06E     		ldr	r0, [r4, #108]
 675 0010 A38C     		ldrh	r3, [r4, #36]
 676 0012 181A     		subs	r0, r3, r0
 677 0014 00B2     		sxth	r0, r0
 678 0016 A084     		strh	r0, [r4, #36]	@ movhi
 269:mpu6050.c     ****     data.raw_ay -= calib.ay_offset;
 679              		.loc 1 269 0
 680 0018 236F     		ldr	r3, [r4, #112]
 681 001a B4F82680 		ldrh	r8, [r4, #38]
 682 001e C3EB0808 		rsb	r8, r3, r8
 683 0022 0FFA88F8 		sxth	r8, r8
 684 0026 A4F82680 		strh	r8, [r4, #38]	@ movhi
 270:mpu6050.c     ****     data.raw_az -= calib.az_offset;
 685              		.loc 1 270 0
 686 002a 676F     		ldr	r7, [r4, #116]
 687 002c 238D     		ldrh	r3, [r4, #40]
 688 002e DF1B     		subs	r7, r3, r7
 689 0030 3FB2     		sxth	r7, r7
 690 0032 2785     		strh	r7, [r4, #40]	@ movhi
 271:mpu6050.c     ****     data.raw_gx -= calib.gx_offset;
 691              		.loc 1 271 0
 692 0034 A66F     		ldr	r6, [r4, #120]
 693 0036 638D     		ldrh	r3, [r4, #42]
 694 0038 9E1B     		subs	r6, r3, r6
 695 003a 36B2     		sxth	r6, r6
 696 003c 6685     		strh	r6, [r4, #42]	@ movhi
 272:mpu6050.c     ****     data.raw_gy -= calib.gy_offset;
 697              		.loc 1 272 0
 698 003e E56F     		ldr	r5, [r4, #124]
 699 0040 A38D     		ldrh	r3, [r4, #44]
 700 0042 5D1B     		subs	r5, r3, r5
 701 0044 2DB2     		sxth	r5, r5
 702 0046 A585     		strh	r5, [r4, #44]	@ movhi
 273:mpu6050.c     ****     //data->raw_gz -= calib.gz_offset;
 274:mpu6050.c     ****    
 275:mpu6050.c     ****     
 276:mpu6050.c     ****     data.ax = ((float)data.raw_ax) / 16384; // X-axis value
 703              		.loc 1 276 0
 704 0048 FFF7FEFF 		bl	__aeabi_i2f
 705              	.LVL50:
 706 004c 4FF06251 		mov	r1, #947912704
ARM GAS  C:\Users\ibrah\AppData\Local\Temp\ccq2XVhz.s 			page 19


 707 0050 FFF7FEFF 		bl	__aeabi_fmul
 708              	.LVL51:
 709 0054 A063     		str	r0, [r4, #56]	@ float
 277:mpu6050.c     ****     data.ay = ((float)data.raw_ay) / 16384; // Y-axis value
 710              		.loc 1 277 0
 711 0056 4046     		mov	r0, r8
 712 0058 FFF7FEFF 		bl	__aeabi_i2f
 713              	.LVL52:
 714 005c 4FF06251 		mov	r1, #947912704
 715 0060 FFF7FEFF 		bl	__aeabi_fmul
 716              	.LVL53:
 717 0064 8046     		mov	r8, r0
 718 0066 E063     		str	r0, [r4, #60]	@ float
 278:mpu6050.c     ****     data.az = ((float)data.raw_az) / 16384; // Z-axis value
 719              		.loc 1 278 0
 720 0068 3846     		mov	r0, r7
 721 006a FFF7FEFF 		bl	__aeabi_i2f
 722              	.LVL54:
 723 006e 4FF06251 		mov	r1, #947912704
 724 0072 FFF7FEFF 		bl	__aeabi_fmul
 725              	.LVL55:
 726 0076 0746     		mov	r7, r0
 727 0078 2064     		str	r0, [r4, #64]	@ float
 279:mpu6050.c     ****     
 280:mpu6050.c     ****     data.gx = ((float)data.raw_gx) / 131;
 728              		.loc 1 280 0
 729 007a 3046     		mov	r0, r6
 730 007c FFF7FEFF 		bl	__aeabi_i2f
 731              	.LVL56:
 732 0080 5A49     		ldr	r1, .L41+28
 733 0082 FFF7FEFF 		bl	__aeabi_fdiv
 734              	.LVL57:
 735 0086 6064     		str	r0, [r4, #68]	@ float
 281:mpu6050.c     ****     data.gy = ((float)data.raw_gy) / 131;
 736              		.loc 1 281 0
 737 0088 2846     		mov	r0, r5
 738 008a FFF7FEFF 		bl	__aeabi_i2f
 739              	.LVL58:
 740 008e 5749     		ldr	r1, .L41+28
 741 0090 FFF7FEFF 		bl	__aeabi_fdiv
 742              	.LVL59:
 743 0094 A064     		str	r0, [r4, #72]	@ float
 282:mpu6050.c     ****     //data->gz = ((float)data.raw_gz) / 131;
 283:mpu6050.c     ****     
 284:mpu6050.c     **** 
 285:mpu6050.c     ****     // Calculating Roll and Pitch from the accelerometers
 286:mpu6050.c     ****     data.ax = (atan2(data.ay, data.az) * RAD_TO_DEG) ; //+ 0.28
 744              		.loc 1 286 0
 745 0096 3846     		mov	r0, r7
 746 0098 FFF7FEFF 		bl	__aeabi_f2d
 747              	.LVL60:
 748 009c 0646     		mov	r6, r0
 749 009e 0F46     		mov	r7, r1
 750 00a0 4046     		mov	r0, r8
 751 00a2 FFF7FEFF 		bl	__aeabi_f2d
 752              	.LVL61:
 753 00a6 3246     		mov	r2, r6
ARM GAS  C:\Users\ibrah\AppData\Local\Temp\ccq2XVhz.s 			page 20


 754 00a8 3B46     		mov	r3, r7
 755 00aa FFF7FEFF 		bl	atan2
 756              	.LVL62:
 757 00ae 48A3     		adr	r3, .L41
 758 00b0 D3E90023 		ldrd	r2, [r3]
 759 00b4 FFF7FEFF 		bl	__aeabi_dmul
 760              	.LVL63:
 761 00b8 FFF7FEFF 		bl	__aeabi_d2f
 762              	.LVL64:
 763 00bc A063     		str	r0, [r4, #56]	@ float
 287:mpu6050.c     ****     data.ay = (atan2(-data.ax, sqrt(pow(data.ay, 2) + pow(data.az, 2))) * RAD_TO_DEG) ; 
 764              		.loc 1 287 0
 765 00be 00F10045 		add	r5, r0, #-2147483648
 766 00c2 4FF00008 		mov	r8, #0
 767 00c6 4FF08049 		mov	r9, #1073741824
 768 00ca E06B     		ldr	r0, [r4, #60]	@ float
 769 00cc FFF7FEFF 		bl	__aeabi_f2d
 770              	.LVL65:
 771 00d0 4246     		mov	r2, r8
 772 00d2 4B46     		mov	r3, r9
 773 00d4 FFF7FEFF 		bl	pow
 774              	.LVL66:
 775 00d8 0646     		mov	r6, r0
 776 00da 0F46     		mov	r7, r1
 777 00dc 206C     		ldr	r0, [r4, #64]	@ float
 778 00de FFF7FEFF 		bl	__aeabi_f2d
 779              	.LVL67:
 780 00e2 4246     		mov	r2, r8
 781 00e4 4B46     		mov	r3, r9
 782 00e6 FFF7FEFF 		bl	pow
 783              	.LVL68:
 784 00ea 8046     		mov	r8, r0
 785 00ec 8946     		mov	r9, r1
 786 00ee 4246     		mov	r2, r8
 787 00f0 4B46     		mov	r3, r9
 788 00f2 3046     		mov	r0, r6
 789 00f4 3946     		mov	r1, r7
 790 00f6 FFF7FEFF 		bl	__aeabi_dadd
 791              	.LVL69:
 792 00fa FFF7FEFF 		bl	sqrt
 793              	.LVL70:
 794 00fe 0646     		mov	r6, r0
 795 0100 0F46     		mov	r7, r1
 796 0102 2846     		mov	r0, r5
 797 0104 FFF7FEFF 		bl	__aeabi_f2d
 798              	.LVL71:
 799 0108 3246     		mov	r2, r6
 800 010a 3B46     		mov	r3, r7
 801 010c FFF7FEFF 		bl	atan2
 802              	.LVL72:
 803 0110 2FA3     		adr	r3, .L41
 804 0112 D3E90023 		ldrd	r2, [r3]
 805 0116 FFF7FEFF 		bl	__aeabi_dmul
 806              	.LVL73:
 807 011a FFF7FEFF 		bl	__aeabi_d2f
 808              	.LVL74:
 809 011e E063     		str	r0, [r4, #60]	@ float
ARM GAS  C:\Users\ibrah\AppData\Local\Temp\ccq2XVhz.s 			page 21


 288:mpu6050.c     ****     
 289:mpu6050.c     ****     // Getting time elapsed
 290:mpu6050.c     ****     GetElapsedTimeS(&elapsed_time);
 810              		.loc 1 290 0
 811 0120 04F18800 		add	r0, r4, #136
 812 0124 FFF7FEFF 		bl	GetElapsedTimeS
 813              	.LVL75:
 291:mpu6050.c     ****     ResetCounter();
 814              		.loc 1 291 0
 815 0128 FFF7FEFF 		bl	ResetCounter
 816              	.LVL76:
 292:mpu6050.c     **** 
 293:mpu6050.c     **** 
 294:mpu6050.c     ****     // Getting gyro angles - Integration
 295:mpu6050.c     ****     data.gx_angle = data.gx_angle + data.gx * elapsed_time; // deg/s * s = deg
 817              		.loc 1 295 0
 818 012c 666D     		ldr	r6, [r4, #84]	@ float
 819 012e D4F88850 		ldr	r5, [r4, #136]	@ float
 820 0132 2946     		mov	r1, r5
 821 0134 606C     		ldr	r0, [r4, #68]	@ float
 822 0136 FFF7FEFF 		bl	__aeabi_fmul
 823              	.LVL77:
 824 013a 0146     		mov	r1, r0
 825 013c 3046     		mov	r0, r6
 826 013e FFF7FEFF 		bl	__aeabi_fadd
 827              	.LVL78:
 828 0142 0646     		mov	r6, r0
 829 0144 6065     		str	r0, [r4, #84]	@ float
 296:mpu6050.c     ****     data.gy_angle = data.gy_angle + data.gy * elapsed_time;
 830              		.loc 1 296 0
 831 0146 A76D     		ldr	r7, [r4, #88]	@ float
 832 0148 A16C     		ldr	r1, [r4, #72]	@ float
 833 014a 2846     		mov	r0, r5
 834 014c FFF7FEFF 		bl	__aeabi_fmul
 835              	.LVL79:
 836 0150 0146     		mov	r1, r0
 837 0152 3846     		mov	r0, r7
 838 0154 FFF7FEFF 		bl	__aeabi_fadd
 839              	.LVL80:
 840 0158 0546     		mov	r5, r0
 841 015a A065     		str	r0, [r4, #88]	@ float
 297:mpu6050.c     ****     //data->gz_angle = data->gz_angle + data->gz * elapsed_time;
 298:mpu6050.c     ****     
 299:mpu6050.c     **** 
 300:mpu6050.c     ****     // Complementary filter
 301:mpu6050.c     ****     data.roll = data.gx_angle * 0.98 + data.ax * 0.02;   
 842              		.loc 1 301 0
 843 015c 3046     		mov	r0, r6
 844 015e FFF7FEFF 		bl	__aeabi_f2d
 845              	.LVL81:
 846 0162 1DA3     		adr	r3, .L41+8
 847 0164 D3E90023 		ldrd	r2, [r3]
 848 0168 FFF7FEFF 		bl	__aeabi_dmul
 849              	.LVL82:
 850 016c 0646     		mov	r6, r0
 851 016e 0F46     		mov	r7, r1
 852 0170 A06B     		ldr	r0, [r4, #56]	@ float
ARM GAS  C:\Users\ibrah\AppData\Local\Temp\ccq2XVhz.s 			page 22


 853 0172 FFF7FEFF 		bl	__aeabi_f2d
 854              	.LVL83:
 855 0176 1AA3     		adr	r3, .L41+16
 856 0178 D3E90023 		ldrd	r2, [r3]
 857 017c FFF7FEFF 		bl	__aeabi_dmul
 858              	.LVL84:
 859 0180 0246     		mov	r2, r0
 860 0182 0B46     		mov	r3, r1
 861 0184 3046     		mov	r0, r6
 862 0186 3946     		mov	r1, r7
 863 0188 FFF7FEFF 		bl	__aeabi_dadd
 864              	.LVL85:
 865 018c FFF7FEFF 		bl	__aeabi_d2f
 866              	.LVL86:
 867 0190 2066     		str	r0, [r4, #96]	@ float
 302:mpu6050.c     ****     data.pitch = data.gy_angle * 0.98 + data.ay * 0.02;        
 868              		.loc 1 302 0
 869 0192 2846     		mov	r0, r5
 870 0194 FFF7FEFF 		bl	__aeabi_f2d
 871              	.LVL87:
 872 0198 0FA3     		adr	r3, .L41+8
 873 019a D3E90023 		ldrd	r2, [r3]
 874 019e FFF7FEFF 		bl	__aeabi_dmul
 875              	.LVL88:
 876 01a2 0646     		mov	r6, r0
 877 01a4 0F46     		mov	r7, r1
 878 01a6 E06B     		ldr	r0, [r4, #60]	@ float
 879 01a8 FFF7FEFF 		bl	__aeabi_f2d
 880              	.LVL89:
 881 01ac 0CA3     		adr	r3, .L41+16
 882 01ae D3E90023 		ldrd	r2, [r3]
 883 01b2 FFF7FEFF 		bl	__aeabi_dmul
 884              	.LVL90:
 885 01b6 0246     		mov	r2, r0
 886 01b8 0B46     		mov	r3, r1
 887 01ba 3046     		mov	r0, r6
 888 01bc 3946     		mov	r1, r7
 889 01be FFF7FEFF 		bl	__aeabi_dadd
 890              	.LVL91:
 891 01c2 FFF7FEFF 		bl	__aeabi_d2f
 892              	.LVL92:
 893 01c6 6066     		str	r0, [r4, #100]	@ float
 894 01c8 BDE8F883 		pop	{r3, r4, r5, r6, r7, r8, r9, pc}
 895              	.L42:
 896 01cc AFF30080 		.align	3
 897              	.L41:
 898 01d0 B694631A 		.word	442733750
 899 01d4 DCA54C40 		.word	1078765020
 900 01d8 5C8FC2F5 		.word	-171798692
 901 01dc 285CEF3F 		.word	1072651304
 902 01e0 7B14AE47 		.word	1202590843
 903 01e4 E17A943F 		.word	1066695393
 904 01e8 00000000 		.word	.LANCHOR0
 905 01ec 00000343 		.word	1124270080
 906              		.cfi_endproc
 907              	.LFE75:
 908              		.size	MPU6050_ReadData, .-MPU6050_ReadData
ARM GAS  C:\Users\ibrah\AppData\Local\Temp\ccq2XVhz.s 			page 23


 909              		.section	.text.MPU6050_GetRoll,"ax",%progbits
 910              		.align	2
 911              		.global	MPU6050_GetRoll
 912              		.thumb
 913              		.thumb_func
 914              		.type	MPU6050_GetRoll, %function
 915              	MPU6050_GetRoll:
 916              	.LFB76:
 303:mpu6050.c     ****     
 304:mpu6050.c     **** 
 305:mpu6050.c     **** }
 306:mpu6050.c     **** 
 307:mpu6050.c     **** 
 308:mpu6050.c     **** 
 309:mpu6050.c     **** void MPU6050_GetRoll(float* roll)
 310:mpu6050.c     **** {
 917              		.loc 1 310 0
 918              		.cfi_startproc
 919              		@ args = 0, pretend = 0, frame = 0
 920              		@ frame_needed = 0, uses_anonymous_args = 0
 921              		@ link register save eliminated.
 922              	.LVL93:
 311:mpu6050.c     ****     *roll = data.roll;
 923              		.loc 1 311 0
 924 0000 014B     		ldr	r3, .L44
 925 0002 1B6E     		ldr	r3, [r3, #96]	@ float
 926 0004 0360     		str	r3, [r0]	@ float
 927 0006 7047     		bx	lr
 928              	.L45:
 929              		.align	2
 930              	.L44:
 931 0008 00000000 		.word	.LANCHOR0
 932              		.cfi_endproc
 933              	.LFE76:
 934              		.size	MPU6050_GetRoll, .-MPU6050_GetRoll
 935              		.section	.text.MPU6050_GetPitch,"ax",%progbits
 936              		.align	2
 937              		.global	MPU6050_GetPitch
 938              		.thumb
 939              		.thumb_func
 940              		.type	MPU6050_GetPitch, %function
 941              	MPU6050_GetPitch:
 942              	.LFB77:
 312:mpu6050.c     **** }
 313:mpu6050.c     **** 
 314:mpu6050.c     **** 
 315:mpu6050.c     **** void MPU6050_GetPitch(float* pitch)
 316:mpu6050.c     **** {
 943              		.loc 1 316 0
 944              		.cfi_startproc
 945              		@ args = 0, pretend = 0, frame = 0
 946              		@ frame_needed = 0, uses_anonymous_args = 0
 947              		@ link register save eliminated.
 948              	.LVL94:
 317:mpu6050.c     ****     *pitch = data.pitch;
 949              		.loc 1 317 0
 950 0000 014B     		ldr	r3, .L47
ARM GAS  C:\Users\ibrah\AppData\Local\Temp\ccq2XVhz.s 			page 24


 951 0002 5B6E     		ldr	r3, [r3, #100]	@ float
 952 0004 0360     		str	r3, [r0]	@ float
 953 0006 7047     		bx	lr
 954              	.L48:
 955              		.align	2
 956              	.L47:
 957 0008 00000000 		.word	.LANCHOR0
 958              		.cfi_endproc
 959              	.LFE77:
 960              		.size	MPU6050_GetPitch, .-MPU6050_GetPitch
 961              		.section	.text.MPU6050_PrintRawData,"ax",%progbits
 962              		.align	2
 963              		.global	MPU6050_PrintRawData
 964              		.thumb
 965              		.thumb_func
 966              		.type	MPU6050_PrintRawData, %function
 967              	MPU6050_PrintRawData:
 968              	.LFB78:
 318:mpu6050.c     **** }
 319:mpu6050.c     **** 
 320:mpu6050.c     **** 
 321:mpu6050.c     **** 
 322:mpu6050.c     **** 
 323:mpu6050.c     **** void MPU6050_PrintRawData()
 324:mpu6050.c     **** {
 969              		.loc 1 324 0
 970              		.cfi_startproc
 971              		@ args = 0, pretend = 0, frame = 16
 972              		@ frame_needed = 0, uses_anonymous_args = 0
 973 0000 30B5     		push	{r4, r5, lr}
 974              		.cfi_def_cfa_offset 12
 975              		.cfi_offset 4, -12
 976              		.cfi_offset 5, -8
 977              		.cfi_offset 14, -4
 978 0002 85B0     		sub	sp, sp, #20
 979              		.cfi_def_cfa_offset 32
 325:mpu6050.c     ****     // Prints //
 326:mpu6050.c     ****     
 327:mpu6050.c     ****     char buff[10];
 328:mpu6050.c     ****     
 329:mpu6050.c     ****     UART_PutString("Ax:: ");
 980              		.loc 1 329 0
 981 0004 4B48     		ldr	r0, .L51
 982 0006 FFF7FEFF 		bl	UART_PutString
 983              	.LVL95:
 330:mpu6050.c     ****     itoa(data.raw_ax, buff, 10);
 984              		.loc 1 330 0
 985 000a 4B4D     		ldr	r5, .L51+4
 986 000c 0A22     		movs	r2, #10
 987 000e 01A9     		add	r1, sp, #4
 988 0010 B5F92400 		ldrsh	r0, [r5, #36]
 989 0014 FFF7FEFF 		bl	itoa
 990              	.LVL96:
 331:mpu6050.c     ****     UART_PutString(buff);
 991              		.loc 1 331 0
 992 0018 01A8     		add	r0, sp, #4
 993 001a FFF7FEFF 		bl	UART_PutString
ARM GAS  C:\Users\ibrah\AppData\Local\Temp\ccq2XVhz.s 			page 25


 994              	.LVL97:
 332:mpu6050.c     ****     UART_PutChar('\n');
 995              		.loc 1 332 0
 996 001e 0A20     		movs	r0, #10
 997 0020 FFF7FEFF 		bl	UART_PutChar
 998              	.LVL98:
 333:mpu6050.c     ****     memset(buff, 0, 10);  
 999              		.loc 1 333 0
 1000 0024 0024     		movs	r4, #0
 1001 0026 0194     		str	r4, [sp, #4]
 1002 0028 0294     		str	r4, [sp, #8]
 1003 002a ADF80C40 		strh	r4, [sp, #12]	@ movhi
 334:mpu6050.c     ****     
 335:mpu6050.c     ****     UART_PutString("Ay:: ");
 1004              		.loc 1 335 0
 1005 002e 4348     		ldr	r0, .L51+8
 1006 0030 FFF7FEFF 		bl	UART_PutString
 1007              	.LVL99:
 336:mpu6050.c     ****     itoa(data.raw_ay, buff, 10);
 1008              		.loc 1 336 0
 1009 0034 0A22     		movs	r2, #10
 1010 0036 01A9     		add	r1, sp, #4
 1011 0038 B5F92600 		ldrsh	r0, [r5, #38]
 1012 003c FFF7FEFF 		bl	itoa
 1013              	.LVL100:
 337:mpu6050.c     ****     UART_PutString(buff);
 1014              		.loc 1 337 0
 1015 0040 01A8     		add	r0, sp, #4
 1016 0042 FFF7FEFF 		bl	UART_PutString
 1017              	.LVL101:
 338:mpu6050.c     ****     UART_PutChar('\n');
 1018              		.loc 1 338 0
 1019 0046 0A20     		movs	r0, #10
 1020 0048 FFF7FEFF 		bl	UART_PutChar
 1021              	.LVL102:
 339:mpu6050.c     ****     memset(buff, 0, 10); 
 1022              		.loc 1 339 0
 1023 004c 0194     		str	r4, [sp, #4]
 1024 004e 0294     		str	r4, [sp, #8]
 1025 0050 ADF80C40 		strh	r4, [sp, #12]	@ movhi
 340:mpu6050.c     ****     
 341:mpu6050.c     ****     UART_PutString("Az:: ");
 1026              		.loc 1 341 0
 1027 0054 3A48     		ldr	r0, .L51+12
 1028 0056 FFF7FEFF 		bl	UART_PutString
 1029              	.LVL103:
 342:mpu6050.c     ****     itoa(data.raw_az, buff, 10);
 1030              		.loc 1 342 0
 1031 005a 0A22     		movs	r2, #10
 1032 005c 01A9     		add	r1, sp, #4
 1033 005e B5F92800 		ldrsh	r0, [r5, #40]
 1034 0062 FFF7FEFF 		bl	itoa
 1035              	.LVL104:
 343:mpu6050.c     ****     UART_PutString(buff);
 1036              		.loc 1 343 0
 1037 0066 01A8     		add	r0, sp, #4
 1038 0068 FFF7FEFF 		bl	UART_PutString
ARM GAS  C:\Users\ibrah\AppData\Local\Temp\ccq2XVhz.s 			page 26


 1039              	.LVL105:
 344:mpu6050.c     ****     UART_PutChar('\n');
 1040              		.loc 1 344 0
 1041 006c 0A20     		movs	r0, #10
 1042 006e FFF7FEFF 		bl	UART_PutChar
 1043              	.LVL106:
 345:mpu6050.c     ****     memset(buff, 0, 10); 
 1044              		.loc 1 345 0
 1045 0072 0194     		str	r4, [sp, #4]
 1046 0074 0294     		str	r4, [sp, #8]
 1047 0076 ADF80C40 		strh	r4, [sp, #12]	@ movhi
 346:mpu6050.c     ****     
 347:mpu6050.c     ****     UART_PutString("Gx:: ");
 1048              		.loc 1 347 0
 1049 007a 3248     		ldr	r0, .L51+16
 1050 007c FFF7FEFF 		bl	UART_PutString
 1051              	.LVL107:
 348:mpu6050.c     ****     itoa(data.raw_gx, buff, 10);
 1052              		.loc 1 348 0
 1053 0080 0A22     		movs	r2, #10
 1054 0082 01A9     		add	r1, sp, #4
 1055 0084 B5F92A00 		ldrsh	r0, [r5, #42]
 1056 0088 FFF7FEFF 		bl	itoa
 1057              	.LVL108:
 349:mpu6050.c     ****     UART_PutString(buff);
 1058              		.loc 1 349 0
 1059 008c 01A8     		add	r0, sp, #4
 1060 008e FFF7FEFF 		bl	UART_PutString
 1061              	.LVL109:
 350:mpu6050.c     ****     UART_PutChar('\n');
 1062              		.loc 1 350 0
 1063 0092 0A20     		movs	r0, #10
 1064 0094 FFF7FEFF 		bl	UART_PutChar
 1065              	.LVL110:
 351:mpu6050.c     ****     memset(buff, 0, 10); 
 1066              		.loc 1 351 0
 1067 0098 0194     		str	r4, [sp, #4]
 1068 009a 0294     		str	r4, [sp, #8]
 1069 009c ADF80C40 		strh	r4, [sp, #12]	@ movhi
 352:mpu6050.c     ****     
 353:mpu6050.c     ****     UART_PutString("Gy:: ");
 1070              		.loc 1 353 0
 1071 00a0 2948     		ldr	r0, .L51+20
 1072 00a2 FFF7FEFF 		bl	UART_PutString
 1073              	.LVL111:
 354:mpu6050.c     ****     itoa(data.raw_gy, buff, 10);
 1074              		.loc 1 354 0
 1075 00a6 0A22     		movs	r2, #10
 1076 00a8 01A9     		add	r1, sp, #4
 1077 00aa B5F92C00 		ldrsh	r0, [r5, #44]
 1078 00ae FFF7FEFF 		bl	itoa
 1079              	.LVL112:
 355:mpu6050.c     ****     UART_PutString(buff);
 1080              		.loc 1 355 0
 1081 00b2 01A8     		add	r0, sp, #4
 1082 00b4 FFF7FEFF 		bl	UART_PutString
 1083              	.LVL113:
ARM GAS  C:\Users\ibrah\AppData\Local\Temp\ccq2XVhz.s 			page 27


 356:mpu6050.c     ****     UART_PutChar('\n');
 1084              		.loc 1 356 0
 1085 00b8 0A20     		movs	r0, #10
 1086 00ba FFF7FEFF 		bl	UART_PutChar
 1087              	.LVL114:
 357:mpu6050.c     ****     memset(buff, 0, 10); 
 1088              		.loc 1 357 0
 1089 00be 0194     		str	r4, [sp, #4]
 1090 00c0 0294     		str	r4, [sp, #8]
 1091 00c2 ADF80C40 		strh	r4, [sp, #12]	@ movhi
 358:mpu6050.c     ****     
 359:mpu6050.c     ****     UART_PutString("Gz:: ");
 1092              		.loc 1 359 0
 1093 00c6 2148     		ldr	r0, .L51+24
 1094 00c8 FFF7FEFF 		bl	UART_PutString
 1095              	.LVL115:
 360:mpu6050.c     ****     itoa(data.raw_gz, buff, 10);
 1096              		.loc 1 360 0
 1097 00cc 0A22     		movs	r2, #10
 1098 00ce 01A9     		add	r1, sp, #4
 1099 00d0 B5F92E00 		ldrsh	r0, [r5, #46]
 1100 00d4 FFF7FEFF 		bl	itoa
 1101              	.LVL116:
 361:mpu6050.c     ****     UART_PutString(buff);
 1102              		.loc 1 361 0
 1103 00d8 01A8     		add	r0, sp, #4
 1104 00da FFF7FEFF 		bl	UART_PutString
 1105              	.LVL117:
 362:mpu6050.c     ****     UART_PutChar('\n');
 1106              		.loc 1 362 0
 1107 00de 0A20     		movs	r0, #10
 1108 00e0 FFF7FEFF 		bl	UART_PutChar
 1109              	.LVL118:
 363:mpu6050.c     ****     memset(buff, 0, 10); 
 1110              		.loc 1 363 0
 1111 00e4 0194     		str	r4, [sp, #4]
 1112 00e6 0294     		str	r4, [sp, #8]
 1113 00e8 ADF80C40 		strh	r4, [sp, #12]	@ movhi
 364:mpu6050.c     ****     
 365:mpu6050.c     ****     UART_PutString("T:: ");
 1114              		.loc 1 365 0
 1115 00ec 1848     		ldr	r0, .L51+28
 1116 00ee FFF7FEFF 		bl	UART_PutString
 1117              	.LVL119:
 366:mpu6050.c     ****     itoa(data.raw_t, buff, 10);
 1118              		.loc 1 366 0
 1119 00f2 0A22     		movs	r2, #10
 1120 00f4 01A9     		add	r1, sp, #4
 1121 00f6 B5F93000 		ldrsh	r0, [r5, #48]
 1122 00fa FFF7FEFF 		bl	itoa
 1123              	.LVL120:
 367:mpu6050.c     ****     UART_PutString(buff);
 1124              		.loc 1 367 0
 1125 00fe 01A8     		add	r0, sp, #4
 1126 0100 FFF7FEFF 		bl	UART_PutString
 1127              	.LVL121:
 368:mpu6050.c     ****     UART_PutChar('\n');
ARM GAS  C:\Users\ibrah\AppData\Local\Temp\ccq2XVhz.s 			page 28


 1128              		.loc 1 368 0
 1129 0104 0A20     		movs	r0, #10
 1130 0106 FFF7FEFF 		bl	UART_PutChar
 1131              	.LVL122:
 369:mpu6050.c     ****     memset(buff, 0, 10); 
 1132              		.loc 1 369 0
 1133 010a 0194     		str	r4, [sp, #4]
 1134 010c 0294     		str	r4, [sp, #8]
 1135 010e ADF80C40 		strh	r4, [sp, #12]	@ movhi
 370:mpu6050.c     ****     
 371:mpu6050.c     **** 
 372:mpu6050.c     ****     UART_PutString("CALIB::Gx:: ");
 1136              		.loc 1 372 0
 1137 0112 1048     		ldr	r0, .L51+32
 1138 0114 FFF7FEFF 		bl	UART_PutString
 1139              	.LVL123:
 373:mpu6050.c     ****     itoa(calib.gx_offset, buff, 10);
 1140              		.loc 1 373 0
 1141 0118 0A22     		movs	r2, #10
 1142 011a 01A9     		add	r1, sp, #4
 1143 011c A86F     		ldr	r0, [r5, #120]
 1144 011e FFF7FEFF 		bl	itoa
 1145              	.LVL124:
 374:mpu6050.c     ****     UART_PutString(buff);
 1146              		.loc 1 374 0
 1147 0122 01A8     		add	r0, sp, #4
 1148 0124 FFF7FEFF 		bl	UART_PutString
 1149              	.LVL125:
 375:mpu6050.c     ****     UART_PutChar('\n');
 1150              		.loc 1 375 0
 1151 0128 0A20     		movs	r0, #10
 1152 012a FFF7FEFF 		bl	UART_PutChar
 1153              	.LVL126:
 376:mpu6050.c     ****     memset(buff, 0, 10); 
 377:mpu6050.c     ****     
 378:mpu6050.c     **** }
 1154              		.loc 1 378 0
 1155 012e 05B0     		add	sp, sp, #20
 1156              		.cfi_def_cfa_offset 12
 1157              		@ sp needed
 1158 0130 30BD     		pop	{r4, r5, pc}
 1159              	.L52:
 1160 0132 00BF     		.align	2
 1161              	.L51:
 1162 0134 40010000 		.word	.LC11
 1163 0138 00000000 		.word	.LANCHOR0
 1164 013c 48010000 		.word	.LC12
 1165 0140 50010000 		.word	.LC13
 1166 0144 58010000 		.word	.LC14
 1167 0148 60010000 		.word	.LC15
 1168 014c 68010000 		.word	.LC16
 1169 0150 70010000 		.word	.LC17
 1170 0154 78010000 		.word	.LC18
 1171              		.cfi_endproc
 1172              	.LFE78:
 1173              		.size	MPU6050_PrintRawData, .-MPU6050_PrintRawData
 1174              		.global	__aeabi_d2uiz
ARM GAS  C:\Users\ibrah\AppData\Local\Temp\ccq2XVhz.s 			page 29


 1175              		.global	__aeabi_f2iz
 1176              		.section	.text.MPU6050_PrintData,"ax",%progbits
 1177              		.align	2
 1178              		.global	MPU6050_PrintData
 1179              		.thumb
 1180              		.thumb_func
 1181              		.type	MPU6050_PrintData, %function
 1182              	MPU6050_PrintData:
 1183              	.LFB79:
 379:mpu6050.c     **** 
 380:mpu6050.c     **** 
 381:mpu6050.c     **** 
 382:mpu6050.c     **** 
 383:mpu6050.c     **** char str[128];
 384:mpu6050.c     **** 
 385:mpu6050.c     **** void MPU6050_PrintData()
 386:mpu6050.c     **** {
 1184              		.loc 1 386 0
 1185              		.cfi_startproc
 1186              		@ args = 0, pretend = 0, frame = 0
 1187              		@ frame_needed = 0, uses_anonymous_args = 0
 1188 0000 2DE9F041 		push	{r4, r5, r6, r7, r8, lr}
 1189              		.cfi_def_cfa_offset 24
 1190              		.cfi_offset 4, -24
 1191              		.cfi_offset 5, -20
 1192              		.cfi_offset 6, -16
 1193              		.cfi_offset 7, -12
 1194              		.cfi_offset 8, -8
 1195              		.cfi_offset 14, -4
 387:mpu6050.c     ****     // Prints //
 388:mpu6050.c     ****     //UART_PutString("::::::::DATA::::::::\n");
 389:mpu6050.c     ****     
 390:mpu6050.c     ****     /*sprintf(str, "Ax:: %d.%02d  ", (int)data->ax, ((uint)(data->ax * 100.0 + 0.5))%100);
 391:mpu6050.c     ****     UART_PutString(str) ;
 392:mpu6050.c     **** 
 393:mpu6050.c     ****     sprintf(str, "Ay:: %d.%02d  ", (int)data->ay, ((uint)(data->ay * 100.0 + 0.5))%100);
 394:mpu6050.c     ****     UART_PutString(str) ;
 395:mpu6050.c     ****     
 396:mpu6050.c     ****     sprintf(str, "Az:: %d.%02d  ", (int)data->az, ((uint)(data->az * 100.0 + 0.5))%100);
 397:mpu6050.c     ****     UART_PutString(str) ;
 398:mpu6050.c     ****     
 399:mpu6050.c     ****     UART_PutChar('\n');
 400:mpu6050.c     ****     
 401:mpu6050.c     ****     sprintf(str, "Gx:: %d.%02d  ", (int)data->gx, ((uint)(data->gx * 100.0 + 0.5))%100);
 402:mpu6050.c     ****     UART_PutString(str) ;
 403:mpu6050.c     ****     
 404:mpu6050.c     ****     sprintf(str, "Gy:: %d.%02d  ", (int)data->gy, ((uint)(data->gy * 100.0 + 0.5))%100);
 405:mpu6050.c     ****     UART_PutString(str) ;
 406:mpu6050.c     ****     
 407:mpu6050.c     ****     sprintf(str, "Gz:: %d.%02d  ", (int)data->gz, ((uint)(data->gz * 100.0 + 0.5))%100);
 408:mpu6050.c     ****     UART_PutString(str) ;
 409:mpu6050.c     ****     
 410:mpu6050.c     ****     UART_PutChar('\n');
 411:mpu6050.c     ****     
 412:mpu6050.c     ****     sprintf(str, "Gx:: %d.%02d  (angle)", (int)data->gx_angle, ((uint)(data->gx * 100.0 + 0.5))%100
 413:mpu6050.c     ****     UART_PutString(str) ;
 414:mpu6050.c     ****     
ARM GAS  C:\Users\ibrah\AppData\Local\Temp\ccq2XVhz.s 			page 30


 415:mpu6050.c     ****     sprintf(str, "Gy:: %d.%02d  (angle)", (int)data->gy_angle, ((uint)(data->gy * 100.0 + 0.5))%100
 416:mpu6050.c     ****     UART_PutString(str) ;
 417:mpu6050.c     ****     
 418:mpu6050.c     ****     sprintf(str, "Gz:: %d.%02d  (angle)", (int)data->gz_angle, ((uint)(data->gz * 100.0 + 0.5))%100
 419:mpu6050.c     ****     UART_PutString(str) ;
 420:mpu6050.c     ****     
 421:mpu6050.c     ****     UART_PutChar('\n');*/
 422:mpu6050.c     ****  
 423:mpu6050.c     ****     sprintf(str, "ROLL:: %d.%02d  (angle) ", (int)data.roll, ((uint)(data.roll * 100.0 + 0.5))%100)
 1196              		.loc 1 423 0
 1197 0004 DFF8A880 		ldr	r8, .L55+24
 1198 0008 D8F86060 		ldr	r6, [r8, #96]	@ float
 1199 000c 3046     		mov	r0, r6
 1200 000e FFF7FEFF 		bl	__aeabi_f2d
 1201              	.LVL127:
 1202 0012 0022     		movs	r2, #0
 1203 0014 204B     		ldr	r3, .L55
 1204 0016 FFF7FEFF 		bl	__aeabi_dmul
 1205              	.LVL128:
 1206 001a 0022     		movs	r2, #0
 1207 001c 1F4B     		ldr	r3, .L55+4
 1208 001e FFF7FEFF 		bl	__aeabi_dadd
 1209              	.LVL129:
 1210 0022 FFF7FEFF 		bl	__aeabi_d2uiz
 1211              	.LVL130:
 1212 0026 1E4C     		ldr	r4, .L55+8
 1213 0028 A4FB0023 		umull	r2, r3, r4, r0
 1214 002c 5B09     		lsrs	r3, r3, #5
 1215 002e 6427     		movs	r7, #100
 1216 0030 07FB1305 		mls	r5, r7, r3, r0
 1217 0034 3046     		mov	r0, r6
 1218 0036 FFF7FEFF 		bl	__aeabi_f2iz
 1219              	.LVL131:
 1220 003a 1A4E     		ldr	r6, .L55+12
 1221 003c 2B46     		mov	r3, r5
 1222 003e 0246     		mov	r2, r0
 1223 0040 1949     		ldr	r1, .L55+16
 1224 0042 3046     		mov	r0, r6
 1225 0044 FFF7FEFF 		bl	sprintf
 1226              	.LVL132:
 424:mpu6050.c     ****     UART_PutString(str) ;
 1227              		.loc 1 424 0
 1228 0048 3046     		mov	r0, r6
 1229 004a FFF7FEFF 		bl	UART_PutString
 1230              	.LVL133:
 425:mpu6050.c     ****     
 426:mpu6050.c     ****     sprintf(str, "PITCH:: %d.%02d  (angle) ", (int)data.pitch, ((uint)(data.pitch * 100.0 + 0.5))%1
 1231              		.loc 1 426 0
 1232 004e D8F86450 		ldr	r5, [r8, #100]	@ float
 1233 0052 2846     		mov	r0, r5
 1234 0054 FFF7FEFF 		bl	__aeabi_f2d
 1235              	.LVL134:
 1236 0058 0022     		movs	r2, #0
 1237 005a 0F4B     		ldr	r3, .L55
 1238 005c FFF7FEFF 		bl	__aeabi_dmul
 1239              	.LVL135:
 1240 0060 0022     		movs	r2, #0
ARM GAS  C:\Users\ibrah\AppData\Local\Temp\ccq2XVhz.s 			page 31


 1241 0062 0E4B     		ldr	r3, .L55+4
 1242 0064 FFF7FEFF 		bl	__aeabi_dadd
 1243              	.LVL136:
 1244 0068 FFF7FEFF 		bl	__aeabi_d2uiz
 1245              	.LVL137:
 1246 006c A4FB0023 		umull	r2, r3, r4, r0
 1247 0070 5B09     		lsrs	r3, r3, #5
 1248 0072 07FB1304 		mls	r4, r7, r3, r0
 1249 0076 2846     		mov	r0, r5
 1250 0078 FFF7FEFF 		bl	__aeabi_f2iz
 1251              	.LVL138:
 1252 007c 2346     		mov	r3, r4
 1253 007e 0246     		mov	r2, r0
 1254 0080 0A49     		ldr	r1, .L55+20
 1255 0082 3046     		mov	r0, r6
 1256 0084 FFF7FEFF 		bl	sprintf
 1257              	.LVL139:
 427:mpu6050.c     ****     UART_PutString(str) ;
 1258              		.loc 1 427 0
 1259 0088 3046     		mov	r0, r6
 1260 008a FFF7FEFF 		bl	UART_PutString
 1261              	.LVL140:
 428:mpu6050.c     ****     
 429:mpu6050.c     ****     /*sprintf(str, "YAW:: %d.%02d  (angle) ", (int)data->yaw, ((uint)(data->yaw * 100.0 + 0.5))%100
 430:mpu6050.c     ****     UART_PutString(str) ;*/
 431:mpu6050.c     ****     
 432:mpu6050.c     ****     UART_PutChar('\n');
 1262              		.loc 1 432 0
 1263 008e 0A20     		movs	r0, #10
 1264 0090 FFF7FEFF 		bl	UART_PutChar
 1265              	.LVL141:
 1266 0094 BDE8F081 		pop	{r4, r5, r6, r7, r8, pc}
 1267              	.L56:
 1268              		.align	2
 1269              	.L55:
 1270 0098 00005940 		.word	1079574528
 1271 009c 0000E03F 		.word	1071644672
 1272 00a0 1F85EB51 		.word	1374389535
 1273 00a4 00000000 		.word	str
 1274 00a8 88010000 		.word	.LC19
 1275 00ac A4010000 		.word	.LC20
 1276 00b0 00000000 		.word	.LANCHOR0
 1277              		.cfi_endproc
 1278              	.LFE79:
 1279              		.size	MPU6050_PrintData, .-MPU6050_PrintData
 1280              		.comm	str,128,4
 1281              		.global	MPU6050_is_calibrated
 1282              		.section	.rodata.str1.4,"aMS",%progbits,1
 1283              		.align	2
 1284              	.LC0:
 1285 0000 54696D65 		.ascii	"Timer and ISR Started\012\000"
 1285      7220616E 
 1285      64204953 
 1285      52205374 
 1285      61727465 
 1286 0017 00       		.space	1
 1287              	.LC1:
ARM GAS  C:\Users\ibrah\AppData\Local\Temp\ccq2XVhz.s 			page 32


 1288 0018 456E7465 		.ascii	"Entered MPU6050 Initialization... \012\000"
 1288      72656420 
 1288      4D505536 
 1288      30353020 
 1288      496E6974 
 1289              	.LC2:
 1290 003c 49324320 		.ascii	"I2C Started\012\000"
 1290      53746172 
 1290      7465640A 
 1290      00
 1291 0049 000000   		.space	3
 1292              	.LC3:
 1293 004c 42656769 		.ascii	"Beginnig Initialization of MPU... \012\000"
 1293      6E6E6967 
 1293      20496E69 
 1293      7469616C 
 1293      697A6174 
 1294              	.LC4:
 1295 0070 57726974 		.ascii	"Writing to Power Management Register... \012\000"
 1295      696E6720 
 1295      746F2050 
 1295      6F776572 
 1295      204D616E 
 1296 009a 0000     		.space	2
 1297              	.LC5:
 1298 009c 436F6E66 		.ascii	"Configuration: Writing to accelerometer register..."
 1298      69677572 
 1298      6174696F 
 1298      6E3A2057 
 1298      72697469 
 1299 00cf 200A00   		.ascii	" \012\000"
 1300 00d2 0000     		.space	2
 1301              	.LC6:
 1302 00d4 0A5200   		.ascii	"\012R\000"
 1303 00d7 00       		.space	1
 1304              	.LC7:
 1305 00d8 446F6E65 		.ascii	"Done.\012\000"
 1305      2E0A00
 1306 00df 00       		.space	1
 1307              	.LC8:
 1308 00e0 436F6E66 		.ascii	"Configuration: Writing to gyroscope register... \012"
 1308      69677572 
 1308      6174696F 
 1308      6E3A2057 
 1308      72697469 
 1309 0111 00       		.ascii	"\000"
 1310 0112 0000     		.space	2
 1311              	.LC9:
 1312 0114 4D505536 		.ascii	"MPU6050 Initialized. \012\000"
 1312      30353020 
 1312      496E6974 
 1312      69616C69 
 1312      7A65642E 
 1313 012b 00       		.space	1
 1314              	.LC10:
 1315 012c 43414C49 		.ascii	"CALIBRATION DONE!\012\000"
 1315      42524154 
ARM GAS  C:\Users\ibrah\AppData\Local\Temp\ccq2XVhz.s 			page 33


 1315      494F4E20 
 1315      444F4E45 
 1315      210A00
 1316 013f 00       		.space	1
 1317              	.LC11:
 1318 0140 41783A3A 		.ascii	"Ax:: \000"
 1318      2000
 1319 0146 0000     		.space	2
 1320              	.LC12:
 1321 0148 41793A3A 		.ascii	"Ay:: \000"
 1321      2000
 1322 014e 0000     		.space	2
 1323              	.LC13:
 1324 0150 417A3A3A 		.ascii	"Az:: \000"
 1324      2000
 1325 0156 0000     		.space	2
 1326              	.LC14:
 1327 0158 47783A3A 		.ascii	"Gx:: \000"
 1327      2000
 1328 015e 0000     		.space	2
 1329              	.LC15:
 1330 0160 47793A3A 		.ascii	"Gy:: \000"
 1330      2000
 1331 0166 0000     		.space	2
 1332              	.LC16:
 1333 0168 477A3A3A 		.ascii	"Gz:: \000"
 1333      2000
 1334 016e 0000     		.space	2
 1335              	.LC17:
 1336 0170 543A3A20 		.ascii	"T:: \000"
 1336      00
 1337 0175 000000   		.space	3
 1338              	.LC18:
 1339 0178 43414C49 		.ascii	"CALIB::Gx:: \000"
 1339      423A3A47 
 1339      783A3A20 
 1339      00
 1340 0185 000000   		.space	3
 1341              	.LC19:
 1342 0188 524F4C4C 		.ascii	"ROLL:: %d.%02d  (angle) \000"
 1342      3A3A2025 
 1342      642E2530 
 1342      32642020 
 1342      28616E67 
 1343 01a1 000000   		.space	3
 1344              	.LC20:
 1345 01a4 50495443 		.ascii	"PITCH:: %d.%02d  (angle) \000"
 1345      483A3A20 
 1345      25642E25 
 1345      30326420 
 1345      2028616E 
 1346              		.bss
 1347              		.align	2
 1348              		.set	.LANCHOR0,. + 0
 1349              		.type	counter, %object
 1350              		.size	counter, 4
 1351              	counter:
ARM GAS  C:\Users\ibrah\AppData\Local\Temp\ccq2XVhz.s 			page 34


 1352 0000 00000000 		.space	4
 1353              		.type	counter_started, %object
 1354              		.size	counter_started, 4
 1355              	counter_started:
 1356 0004 00000000 		.space	4
 1357              		.type	MPU6050_flag, %object
 1358              		.size	MPU6050_flag, 1
 1359              	MPU6050_flag:
 1360 0008 00       		.space	1
 1361 0009 000000   		.space	3
 1362              		.type	i2c_buffer, %object
 1363              		.size	i2c_buffer, 22
 1364              	i2c_buffer:
 1365 000c 00000000 		.space	22
 1365      00000000 
 1365      00000000 
 1365      00000000 
 1365      00000000 
 1366 0022 0000     		.space	2
 1367              		.type	data, %object
 1368              		.size	data, 72
 1369              	data:
 1370 0024 00000000 		.space	72
 1370      00000000 
 1370      00000000 
 1370      00000000 
 1370      00000000 
 1371              		.type	calib, %object
 1372              		.size	calib, 24
 1373              	calib:
 1374 006c 00000000 		.space	24
 1374      00000000 
 1374      00000000 
 1374      00000000 
 1374      00000000 
 1375              		.type	MPU6050_is_calibrated, %object
 1376              		.size	MPU6050_is_calibrated, 1
 1377              	MPU6050_is_calibrated:
 1378 0084 00       		.space	1
 1379 0085 000000   		.space	3
 1380              		.type	elapsed_time, %object
 1381              		.size	elapsed_time, 4
 1382              	elapsed_time:
 1383 0088 00000000 		.space	4
 1384              		.text
 1385              	.Letext0:
 1386              		.file 2 "c:\\program files (x86)\\cypress\\psoc creator\\4.4\\psoc creator\\import\\gnu\\arm\\5.4.
 1387              		.file 3 "c:\\program files (x86)\\cypress\\psoc creator\\4.4\\psoc creator\\import\\gnu\\arm\\5.4.
 1388              		.file 4 "c:\\program files (x86)\\cypress\\psoc creator\\4.4\\psoc creator\\import\\gnu\\arm\\5.4.
 1389              		.file 5 "Generated_Source\\PSoC5/cytypes.h"
 1390              		.file 6 "mpu6050.h"
 1391              		.file 7 "Generated_Source\\PSoC5/core_cm3.h"
 1392              		.file 8 "Generated_Source\\PSoC5/Timer.h"
 1393              		.file 9 "Generated_Source\\PSoC5/I2C_MPU6050.h"
 1394              		.file 10 "Generated_Source\\PSoC5/ISR.h"
 1395              		.file 11 "Generated_Source\\PSoC5/UART.h"
 1396              		.file 12 "Generated_Source\\PSoC5/CyLib.h"
ARM GAS  C:\Users\ibrah\AppData\Local\Temp\ccq2XVhz.s 			page 35


 1397              		.file 13 "c:\\program files (x86)\\cypress\\psoc creator\\4.4\\psoc creator\\import\\gnu\\arm\\5.4
 1398              		.file 14 "c:\\program files (x86)\\cypress\\psoc creator\\4.4\\psoc creator\\import\\gnu\\arm\\5.4
 1399              		.file 15 "c:\\program files (x86)\\cypress\\psoc creator\\4.4\\psoc creator\\import\\gnu\\arm\\5.4