ARM GAS  C:\Users\ibrah\AppData\Local\Temp\cc8ICvUS.s 			page 1


   1              		.syntax unified
   2              		.cpu cortex-m3
   3              		.fpu softvfp
   4              		.eabi_attribute 20, 1
   5              		.eabi_attribute 21, 1
   6              		.eabi_attribute 23, 3
   7              		.eabi_attribute 24, 1
   8              		.eabi_attribute 25, 1
   9              		.eabi_attribute 26, 1
  10              		.eabi_attribute 30, 1
  11              		.eabi_attribute 34, 1
  12              		.eabi_attribute 18, 4
  13              		.thumb
  14              		.syntax unified
  15              		.file	"utilities.c"
  16              		.text
  17              	.Ltext0:
  18              		.cfi_sections	.debug_frame
  19              		.global	__aeabi_f2iz
  20              		.section	.text.LCD_PrintOrientation,"ax",%progbits
  21              		.align	2
  22              		.global	LCD_PrintOrientation
  23              		.thumb
  24              		.thumb_func
  25              		.type	LCD_PrintOrientation, %function
  26              	LCD_PrintOrientation:
  27              	.LFB64:
  28              		.file 1 "utilities.c"
   1:utilities.c   **** #include <project.h>
   2:utilities.c   **** #include <stdio.h>
   3:utilities.c   **** 
   4:utilities.c   **** 
   5:utilities.c   **** #include "utilities.h"
   6:utilities.c   **** 
   7:utilities.c   **** 
   8:utilities.c   **** 
   9:utilities.c   **** 
  10:utilities.c   **** 
  11:utilities.c   **** char orientation[50] = {0};
  12:utilities.c   **** 
  13:utilities.c   **** 
  14:utilities.c   **** 
  15:utilities.c   **** 
  16:utilities.c   **** uint8 led1_state = 0;
  17:utilities.c   **** uint8 led2_state = 0;
  18:utilities.c   **** uint8 led3_state = 0;
  19:utilities.c   **** uint8 led4_state = 0;
  20:utilities.c   **** 
  21:utilities.c   **** 
  22:utilities.c   **** 
  23:utilities.c   **** 
  24:utilities.c   **** void LCD_PrintOrientation(float* roll, float* pitch)
  25:utilities.c   **** {   
  29              		.loc 1 25 0
  30              		.cfi_startproc
  31              		@ args = 0, pretend = 0, frame = 32
  32              		@ frame_needed = 0, uses_anonymous_args = 0
ARM GAS  C:\Users\ibrah\AppData\Local\Temp\cc8ICvUS.s 			page 2


  33              	.LVL0:
  34 0000 30B5     		push	{r4, r5, lr}
  35              		.cfi_def_cfa_offset 12
  36              		.cfi_offset 4, -12
  37              		.cfi_offset 5, -8
  38              		.cfi_offset 14, -4
  39 0002 89B0     		sub	sp, sp, #36
  40              		.cfi_def_cfa_offset 48
  41 0004 0546     		mov	r5, r0
  42 0006 0C46     		mov	r4, r1
  26:utilities.c   **** 
  27:utilities.c   ****     char orientation[30] = {0};
  43              		.loc 1 27 0
  44 0008 1E22     		movs	r2, #30
  45 000a 0021     		movs	r1, #0
  46              	.LVL1:
  47 000c 6846     		mov	r0, sp
  48              	.LVL2:
  49 000e FFF7FEFF 		bl	memset
  50              	.LVL3:
  28:utilities.c   ****     
  29:utilities.c   ****     LCD_ClearDisplay();
  51              		.loc 1 29 0
  52 0012 0120     		movs	r0, #1
  53 0014 FFF7FEFF 		bl	LCD_WriteControl
  54              	.LVL4:
  30:utilities.c   **** 
  31:utilities.c   ****     sprintf(orientation, "%d/%d", (int)*roll, (int)*pitch);
  55              		.loc 1 31 0
  56 0018 2D68     		ldr	r5, [r5]	@ float
  57              	.LVL5:
  58 001a 2068     		ldr	r0, [r4]	@ float
  59 001c FFF7FEFF 		bl	__aeabi_f2iz
  60              	.LVL6:
  61 0020 0446     		mov	r4, r0
  62              	.LVL7:
  63 0022 2846     		mov	r0, r5
  64 0024 FFF7FEFF 		bl	__aeabi_f2iz
  65              	.LVL8:
  66 0028 2346     		mov	r3, r4
  67 002a 0246     		mov	r2, r0
  68 002c 0449     		ldr	r1, .L3
  69 002e 6846     		mov	r0, sp
  70 0030 FFF7FEFF 		bl	sprintf
  71              	.LVL9:
  32:utilities.c   ****     LCD_PrintString(orientation);
  72              		.loc 1 32 0
  73 0034 6846     		mov	r0, sp
  74 0036 FFF7FEFF 		bl	LCD_PrintString
  75              	.LVL10:
  33:utilities.c   **** 
  34:utilities.c   **** }
  76              		.loc 1 34 0
  77 003a 09B0     		add	sp, sp, #36
  78              		.cfi_def_cfa_offset 12
  79              		@ sp needed
  80 003c 30BD     		pop	{r4, r5, pc}
ARM GAS  C:\Users\ibrah\AppData\Local\Temp\cc8ICvUS.s 			page 3


  81              	.L4:
  82 003e 00BF     		.align	2
  83              	.L3:
  84 0040 00000000 		.word	.LC0
  85              		.cfi_endproc
  86              	.LFE64:
  87              		.size	LCD_PrintOrientation, .-LCD_PrintOrientation
  88              		.section	.text.audi,"ax",%progbits
  89              		.align	2
  90              		.global	audi
  91              		.thumb
  92              		.thumb_func
  93              		.type	audi, %function
  94              	audi:
  95              	.LFB65:
  35:utilities.c   **** 
  36:utilities.c   **** 
  37:utilities.c   **** 
  38:utilities.c   **** 
  39:utilities.c   **** 
  40:utilities.c   **** void audi(){
  96              		.loc 1 40 0
  97              		.cfi_startproc
  98              		@ args = 0, pretend = 0, frame = 0
  99              		@ frame_needed = 0, uses_anonymous_args = 0
 100 0000 08B5     		push	{r3, lr}
 101              		.cfi_def_cfa_offset 8
 102              		.cfi_offset 3, -8
 103              		.cfi_offset 14, -4
  41:utilities.c   ****         LED1_Write(1);
 104              		.loc 1 41 0
 105 0002 0120     		movs	r0, #1
 106 0004 FFF7FEFF 		bl	LED1_Write
 107              	.LVL11:
  42:utilities.c   ****         CyDelay(125);
 108              		.loc 1 42 0
 109 0008 7D20     		movs	r0, #125
 110 000a FFF7FEFF 		bl	CyDelay
 111              	.LVL12:
  43:utilities.c   ****         LED2_Write(1);
 112              		.loc 1 43 0
 113 000e 0120     		movs	r0, #1
 114 0010 FFF7FEFF 		bl	LED2_Write
 115              	.LVL13:
  44:utilities.c   ****         CyDelay(125);
 116              		.loc 1 44 0
 117 0014 7D20     		movs	r0, #125
 118 0016 FFF7FEFF 		bl	CyDelay
 119              	.LVL14:
  45:utilities.c   ****         LED3_Write(1);
 120              		.loc 1 45 0
 121 001a 0120     		movs	r0, #1
 122 001c FFF7FEFF 		bl	LED3_Write
 123              	.LVL15:
  46:utilities.c   ****         CyDelay(125);
 124              		.loc 1 46 0
 125 0020 7D20     		movs	r0, #125
ARM GAS  C:\Users\ibrah\AppData\Local\Temp\cc8ICvUS.s 			page 4


 126 0022 FFF7FEFF 		bl	CyDelay
 127              	.LVL16:
  47:utilities.c   ****         LED4_Write(1);
 128              		.loc 1 47 0
 129 0026 0120     		movs	r0, #1
 130 0028 FFF7FEFF 		bl	LED4_Write
 131              	.LVL17:
  48:utilities.c   ****         CyDelay(125);
 132              		.loc 1 48 0
 133 002c 7D20     		movs	r0, #125
 134 002e FFF7FEFF 		bl	CyDelay
 135              	.LVL18:
  49:utilities.c   ****         
  50:utilities.c   ****         
  51:utilities.c   **** 
  52:utilities.c   ****         LED1_Write(0);
 136              		.loc 1 52 0
 137 0032 0020     		movs	r0, #0
 138 0034 FFF7FEFF 		bl	LED1_Write
 139              	.LVL19:
  53:utilities.c   ****         CyDelay(125);
 140              		.loc 1 53 0
 141 0038 7D20     		movs	r0, #125
 142 003a FFF7FEFF 		bl	CyDelay
 143              	.LVL20:
  54:utilities.c   ****         LED2_Write(0);
 144              		.loc 1 54 0
 145 003e 0020     		movs	r0, #0
 146 0040 FFF7FEFF 		bl	LED2_Write
 147              	.LVL21:
  55:utilities.c   ****         CyDelay(125);
 148              		.loc 1 55 0
 149 0044 7D20     		movs	r0, #125
 150 0046 FFF7FEFF 		bl	CyDelay
 151              	.LVL22:
  56:utilities.c   ****         LED3_Write(0);
 152              		.loc 1 56 0
 153 004a 0020     		movs	r0, #0
 154 004c FFF7FEFF 		bl	LED3_Write
 155              	.LVL23:
  57:utilities.c   ****         CyDelay(125);
 156              		.loc 1 57 0
 157 0050 7D20     		movs	r0, #125
 158 0052 FFF7FEFF 		bl	CyDelay
 159              	.LVL24:
  58:utilities.c   ****         LED4_Write(0);
 160              		.loc 1 58 0
 161 0056 0020     		movs	r0, #0
 162 0058 FFF7FEFF 		bl	LED4_Write
 163              	.LVL25:
  59:utilities.c   ****         CyDelay(125);
 164              		.loc 1 59 0
 165 005c 7D20     		movs	r0, #125
 166 005e FFF7FEFF 		bl	CyDelay
 167              	.LVL26:
 168 0062 08BD     		pop	{r3, pc}
 169              		.cfi_endproc
ARM GAS  C:\Users\ibrah\AppData\Local\Temp\cc8ICvUS.s 			page 5


 170              	.LFE65:
 171              		.size	audi, .-audi
 172              		.section	.text.SetOnLEDs,"ax",%progbits
 173              		.align	2
 174              		.global	SetOnLEDs
 175              		.thumb
 176              		.thumb_func
 177              		.type	SetOnLEDs, %function
 178              	SetOnLEDs:
 179              	.LFB66:
  60:utilities.c   **** }
  61:utilities.c   **** 
  62:utilities.c   **** 
  63:utilities.c   **** 
  64:utilities.c   **** void SetOnLEDs()
  65:utilities.c   **** {
 180              		.loc 1 65 0
 181              		.cfi_startproc
 182              		@ args = 0, pretend = 0, frame = 0
 183              		@ frame_needed = 0, uses_anonymous_args = 0
 184 0000 08B5     		push	{r3, lr}
 185              		.cfi_def_cfa_offset 8
 186              		.cfi_offset 3, -8
 187              		.cfi_offset 14, -4
  66:utilities.c   ****     
  67:utilities.c   ****     LED1_Write(1);
 188              		.loc 1 67 0
 189 0002 0120     		movs	r0, #1
 190 0004 FFF7FEFF 		bl	LED1_Write
 191              	.LVL27:
  68:utilities.c   ****     LED2_Write(1);
 192              		.loc 1 68 0
 193 0008 0120     		movs	r0, #1
 194 000a FFF7FEFF 		bl	LED2_Write
 195              	.LVL28:
  69:utilities.c   ****     LED3_Write(1);
 196              		.loc 1 69 0
 197 000e 0120     		movs	r0, #1
 198 0010 FFF7FEFF 		bl	LED3_Write
 199              	.LVL29:
  70:utilities.c   ****     LED4_Write(1);
 200              		.loc 1 70 0
 201 0014 0120     		movs	r0, #1
 202 0016 FFF7FEFF 		bl	LED4_Write
 203              	.LVL30:
 204 001a 08BD     		pop	{r3, pc}
 205              		.cfi_endproc
 206              	.LFE66:
 207              		.size	SetOnLEDs, .-SetOnLEDs
 208              		.section	.text.SetOffLEDs,"ax",%progbits
 209              		.align	2
 210              		.global	SetOffLEDs
 211              		.thumb
 212              		.thumb_func
 213              		.type	SetOffLEDs, %function
 214              	SetOffLEDs:
 215              	.LFB67:
ARM GAS  C:\Users\ibrah\AppData\Local\Temp\cc8ICvUS.s 			page 6


  71:utilities.c   **** 
  72:utilities.c   **** }
  73:utilities.c   **** 
  74:utilities.c   **** 
  75:utilities.c   **** void SetOffLEDs()
  76:utilities.c   **** {
 216              		.loc 1 76 0
 217              		.cfi_startproc
 218              		@ args = 0, pretend = 0, frame = 0
 219              		@ frame_needed = 0, uses_anonymous_args = 0
 220 0000 08B5     		push	{r3, lr}
 221              		.cfi_def_cfa_offset 8
 222              		.cfi_offset 3, -8
 223              		.cfi_offset 14, -4
  77:utilities.c   ****     
  78:utilities.c   ****     LED1_Write(0);
 224              		.loc 1 78 0
 225 0002 0020     		movs	r0, #0
 226 0004 FFF7FEFF 		bl	LED1_Write
 227              	.LVL31:
  79:utilities.c   ****     LED2_Write(0);
 228              		.loc 1 79 0
 229 0008 0020     		movs	r0, #0
 230 000a FFF7FEFF 		bl	LED2_Write
 231              	.LVL32:
  80:utilities.c   ****     LED3_Write(0);
 232              		.loc 1 80 0
 233 000e 0020     		movs	r0, #0
 234 0010 FFF7FEFF 		bl	LED3_Write
 235              	.LVL33:
  81:utilities.c   ****     LED4_Write(0);
 236              		.loc 1 81 0
 237 0014 0020     		movs	r0, #0
 238 0016 FFF7FEFF 		bl	LED4_Write
 239              	.LVL34:
 240 001a 08BD     		pop	{r3, pc}
 241              		.cfi_endproc
 242              	.LFE67:
 243              		.size	SetOffLEDs, .-SetOffLEDs
 244              		.global	led4_state
 245              		.global	led3_state
 246              		.global	led2_state
 247              		.global	led1_state
 248              		.global	orientation
 249              		.section	.rodata.str1.4,"aMS",%progbits,1
 250              		.align	2
 251              	.LC0:
 252 0000 25642F25 		.ascii	"%d/%d\000"
 252      6400
 253              		.bss
 254              		.align	2
 255              		.type	led4_state, %object
 256              		.size	led4_state, 1
 257              	led4_state:
 258 0000 00       		.space	1
 259              		.type	led3_state, %object
 260              		.size	led3_state, 1
ARM GAS  C:\Users\ibrah\AppData\Local\Temp\cc8ICvUS.s 			page 7


 261              	led3_state:
 262 0001 00       		.space	1
 263              		.type	led2_state, %object
 264              		.size	led2_state, 1
 265              	led2_state:
 266 0002 00       		.space	1
 267              		.type	led1_state, %object
 268              		.size	led1_state, 1
 269              	led1_state:
 270 0003 00       		.space	1
 271              		.type	orientation, %object
 272              		.size	orientation, 50
 273              	orientation:
 274 0004 00000000 		.space	50
 274      00000000 
 274      00000000 
 274      00000000 
 274      00000000 
 275              		.text
 276              	.Letext0:
 277              		.file 2 "c:\\program files (x86)\\cypress\\psoc creator\\4.4\\psoc creator\\import\\gnu\\arm\\5.4.
 278              		.file 3 "c:\\program files (x86)\\cypress\\psoc creator\\4.4\\psoc creator\\import\\gnu\\arm\\5.4.
 279              		.file 4 "Generated_Source\\PSoC5/cytypes.h"
 280              		.file 5 "Generated_Source\\PSoC5/core_cm3.h"
 281              		.file 6 "Generated_Source\\PSoC5/LCD.h"
 282              		.file 7 "c:\\program files (x86)\\cypress\\psoc creator\\4.4\\psoc creator\\import\\gnu\\arm\\5.4.
 283              		.file 8 "Generated_Source\\PSoC5/LED1.h"
 284              		.file 9 "Generated_Source\\PSoC5/CyLib.h"
 285              		.file 10 "Generated_Source\\PSoC5/LED2.h"
 286              		.file 11 "Generated_Source\\PSoC5/LED3.h"
 287              		.file 12 "Generated_Source\\PSoC5/LED4.h"